
Keypad_app.elf:     file format elf32-avr

Sections:
Idx Name          Size      VMA       LMA       File off  Algn
  0 .text         000000ac  00000000  00000000  00000074  2**1
                  CONTENTS, ALLOC, LOAD, READONLY, CODE
  1 .data         00000000  00800060  00800060  0000073c  2**0
                  ALLOC, LOAD, DATA
  2 .comment      0000002f  00000000  00000000  0000073c  2**0
                  CONTENTS, READONLY
  3 .stack.descriptors.hdr 0000002a  00000000  00000000  0000076b  2**0
                  CONTENTS, READONLY
  4 .debug_info   000004e6  00000000  00000000  00000795  2**0
                  CONTENTS, READONLY, DEBUGGING
  5 .debug_abbrev 000004a3  00000000  00000000  00000c7b  2**0
                  CONTENTS, READONLY, DEBUGGING
  6 .debug_line   00000119  00000000  00000000  0000111e  2**0
                  CONTENTS, READONLY, DEBUGGING
  7 .debug_str    00000196  00000000  00000000  00001237  2**0
                  CONTENTS, READONLY, DEBUGGING
  8 .text         00000002  000006ae  000006ae  00000722  2**1
                  CONTENTS, ALLOC, LOAD, READONLY, CODE
  9 .note.gnu.avr.deviceinfo 0000003c  00000000  00000000  000013d0  2**2
                  CONTENTS, READONLY, DEBUGGING
 10 .text.KEYPAD_init 0000007c  000001dc  000001dc  00000250  2**1
                  CONTENTS, ALLOC, LOAD, READONLY, CODE
 11 .text.KEYPAD_read 000000f4  000000e8  000000e8  0000015c  2**1
                  CONTENTS, ALLOC, LOAD, READONLY, CODE
 12 .progmemx.data.keypad_colums_arr 00000004  000006b0  000006b0  00000724  2**0
                  CONTENTS, ALLOC, LOAD, READONLY, PROGMEMX
 13 .progmemx.data.keypad_rows_arr 00000004  000006b4  000006b4  00000728  2**0
                  CONTENTS, ALLOC, LOAD, READONLY, PROGMEMX
 14 .progmemx.data.keypad_matrix 00000010  000006b8  000006b8  0000072c  2**0
                  CONTENTS, ALLOC, LOAD, READONLY, PROGMEMX
 15 .text.startup.main 00000026  000000ba  000000ba  0000012e  2**1
                  CONTENTS, ALLOC, LOAD, READONLY, CODE
 16 .text.DIO_voidSetPinDirection 00000096  00000530  00000530  000005a4  2**1
                  CONTENTS, ALLOC, LOAD, READONLY, CODE
 17 .text.DIO_voidSetPinValue 00000096  0000049a  0000049a  0000050e  2**1
                  CONTENTS, ALLOC, LOAD, READONLY, CODE
 18 .text.DIO_voidGetPinValue 0000007a  00000420  00000420  00000494  2**1
                  CONTENTS, ALLOC, LOAD, READONLY, CODE
 19 .text.SEVEN_SEG_init 00000078  000003a8  000003a8  0000041c  2**1
                  CONTENTS, ALLOC, LOAD, READONLY, CODE
 20 .text.SEVEN_SEG_write_byte 000000be  000005e4  000005e4  00000658  2**1
                  CONTENTS, ALLOC, LOAD, READONLY, CODE
 21 .text.SEVEN_SEG_write 00000150  00000258  00000258  000002cc  2**1
                  CONTENTS, ALLOC, LOAD, READONLY, CODE
 22 .text.libgcc  0000000c  000006a2  000006a2  00000716  2**1
                  CONTENTS, ALLOC, LOAD, READONLY, CODE
 23 .text.libgcc.mul 0000001e  000005c6  000005c6  0000063a  2**1
                  CONTENTS, ALLOC, LOAD, READONLY, CODE
 24 .text.__dummy_fini 00000002  000000e0  000000e0  00000154  2**1
                  CONTENTS, ALLOC, LOAD, READONLY, CODE
 25 .text.__dummy_funcs_on_exit 00000002  000000e6  000000e6  0000015a  2**1
                  CONTENTS, ALLOC, LOAD, READONLY, CODE
 26 .text.__dummy_simulator_exit 00000002  000000e2  000000e2  00000156  2**1
                  CONTENTS, ALLOC, LOAD, READONLY, CODE
 27 .text.exit    0000000e  000000ac  000000ac  00000120  2**1
                  CONTENTS, ALLOC, LOAD, READONLY, CODE
 28 .text._Exit   00000002  000000e4  000000e4  00000158  2**1
                  CONTENTS, ALLOC, LOAD, READONLY, CODE

Disassembly of section .text:

00000000 <__vectors>:
   0:	4b c0       	rjmp	.+150    	; 0x98 <__ctors_end>
   2:	00 00       	nop
   4:	54 c3       	rjmp	.+1704   	; 0x6ae <__bad_interrupt>
   6:	00 00       	nop
   8:	52 c3       	rjmp	.+1700   	; 0x6ae <__bad_interrupt>
   a:	00 00       	nop
   c:	50 c3       	rjmp	.+1696   	; 0x6ae <__bad_interrupt>
   e:	00 00       	nop
  10:	4e c3       	rjmp	.+1692   	; 0x6ae <__bad_interrupt>
  12:	00 00       	nop
  14:	4c c3       	rjmp	.+1688   	; 0x6ae <__bad_interrupt>
  16:	00 00       	nop
  18:	4a c3       	rjmp	.+1684   	; 0x6ae <__bad_interrupt>
  1a:	00 00       	nop
  1c:	48 c3       	rjmp	.+1680   	; 0x6ae <__bad_interrupt>
  1e:	00 00       	nop
  20:	46 c3       	rjmp	.+1676   	; 0x6ae <__bad_interrupt>
  22:	00 00       	nop
  24:	44 c3       	rjmp	.+1672   	; 0x6ae <__bad_interrupt>
  26:	00 00       	nop
  28:	42 c3       	rjmp	.+1668   	; 0x6ae <__bad_interrupt>
  2a:	00 00       	nop
  2c:	40 c3       	rjmp	.+1664   	; 0x6ae <__bad_interrupt>
  2e:	00 00       	nop
  30:	3e c3       	rjmp	.+1660   	; 0x6ae <__bad_interrupt>
  32:	00 00       	nop
  34:	3c c3       	rjmp	.+1656   	; 0x6ae <__bad_interrupt>
  36:	00 00       	nop
  38:	3a c3       	rjmp	.+1652   	; 0x6ae <__bad_interrupt>
  3a:	00 00       	nop
  3c:	38 c3       	rjmp	.+1648   	; 0x6ae <__bad_interrupt>
  3e:	00 00       	nop
  40:	36 c3       	rjmp	.+1644   	; 0x6ae <__bad_interrupt>
  42:	00 00       	nop
  44:	34 c3       	rjmp	.+1640   	; 0x6ae <__bad_interrupt>
  46:	00 00       	nop
  48:	32 c3       	rjmp	.+1636   	; 0x6ae <__bad_interrupt>
  4a:	00 00       	nop
  4c:	30 c3       	rjmp	.+1632   	; 0x6ae <__bad_interrupt>
  4e:	00 00       	nop
  50:	2e c3       	rjmp	.+1628   	; 0x6ae <__bad_interrupt>
  52:	00 00       	nop
  54:	b3 02       	muls	r27, r19
  56:	bb 02       	muls	r27, r27
  58:	c3 02       	muls	r28, r19
  5a:	cb 02       	muls	r28, r27
  5c:	d3 02       	muls	r29, r19
  5e:	db 02       	muls	r29, r27
  60:	ab 02       	muls	r26, r27
  62:	a3 02       	muls	r26, r19
  64:	68 02       	muls	r22, r24
  66:	70 02       	muls	r23, r16
  68:	78 02       	muls	r23, r24
  6a:	80 02       	muls	r24, r16
  6c:	88 02       	muls	r24, r24
  6e:	90 02       	muls	r25, r16
  70:	60 02       	muls	r22, r16
  72:	58 02       	muls	r21, r24
  74:	2e 02       	muls	r18, r30
  76:	33 02       	muls	r19, r19
  78:	39 02       	muls	r19, r25
  7a:	40 02       	muls	r20, r16
  7c:	47 02       	muls	r20, r23
  7e:	19 02       	muls	r17, r25
  80:	20 02       	muls	r18, r16
  82:	27 02       	muls	r18, r23
  84:	11 03       	mulsu	r17, r17
  86:	25 03       	mulsu	r18, r21
  88:	27 03       	mulsu	r18, r23
  8a:	2e 03       	fmul	r18, r22
  8c:	35 03       	mulsu	r19, r21
  8e:	41 03       	mulsu	r20, r17
  90:	43 03       	mulsu	r20, r19
  92:	4f 03       	fmul	r20, r23
  94:	fb 02       	muls	r31, r27
  96:	0f 03       	fmul	r16, r23

00000098 <__ctors_end>:
  98:	11 24       	eor	r1, r1
  9a:	1f be       	out	0x3f, r1	; 63
  9c:	cf e5       	ldi	r28, 0x5F	; 95
  9e:	d8 e0       	ldi	r29, 0x08	; 8
  a0:	de bf       	out	0x3e, r29	; 62
  a2:	cd bf       	out	0x3d, r28	; 61
  a4:	0a d0       	rcall	.+20     	; 0xba <main>
  a6:	02 c0       	rjmp	.+4      	; 0xac <_etext>

000000a8 <_exit>:
  a8:	f8 94       	cli

000000aa <__stop_program>:
  aa:	ff cf       	rjmp	.-2      	; 0xaa <__stop_program>

Disassembly of section .text:

000006ae <__bad_interrupt>:
 6ae:	a8 cc       	rjmp	.-1712   	; 0x0 <__vectors>

Disassembly of section .text.KEYPAD_init:

000001dc <KEYPAD_init>:
 1dc:	6f 92       	push	r6
 1de:	7f 92       	push	r7
 1e0:	8f 92       	push	r8
 1e2:	cf 92       	push	r12
 1e4:	df 92       	push	r13
 1e6:	ef 92       	push	r14
 1e8:	cf 93       	push	r28
 1ea:	84 eb       	ldi	r24, 0xB4	; 180
 1ec:	68 2e       	mov	r6, r24
 1ee:	86 e0       	ldi	r24, 0x06	; 6
 1f0:	78 2e       	mov	r7, r24
 1f2:	80 e0       	ldi	r24, 0x00	; 0
 1f4:	88 2e       	mov	r8, r24
 1f6:	90 eb       	ldi	r25, 0xB0	; 176
 1f8:	c9 2e       	mov	r12, r25
 1fa:	96 e0       	ldi	r25, 0x06	; 6
 1fc:	d9 2e       	mov	r13, r25
 1fe:	90 e0       	ldi	r25, 0x00	; 0
 200:	e9 2e       	mov	r14, r25
 202:	c7 e0       	ldi	r28, 0x07	; 7
 204:	65 e0       	ldi	r22, 0x05	; 5
 206:	41 e0       	ldi	r20, 0x01	; 1
 208:	83 e3       	ldi	r24, 0x33	; 51
 20a:	90 e0       	ldi	r25, 0x00	; 0
 20c:	91 d1       	rcall	.+802    	; 0x530 <DIO_voidSetPinDirection>
 20e:	40 e0       	ldi	r20, 0x00	; 0
 210:	6c 2f       	mov	r22, r28
 212:	80 e3       	ldi	r24, 0x30	; 48
 214:	90 e0       	ldi	r25, 0x00	; 0
 216:	8c d1       	rcall	.+792    	; 0x530 <DIO_voidSetPinDirection>
 218:	8f ef       	ldi	r24, 0xFF	; 255
 21a:	68 1a       	sub	r6, r24
 21c:	78 0a       	sbc	r7, r24
 21e:	88 0a       	sbc	r8, r24
 220:	8f ef       	ldi	r24, 0xFF	; 255
 222:	c8 1a       	sub	r12, r24
 224:	d8 0a       	sbc	r13, r24
 226:	e8 0a       	sbc	r14, r24
 228:	84 eb       	ldi	r24, 0xB4	; 180
 22a:	c8 16       	cp	r12, r24
 22c:	86 e0       	ldi	r24, 0x06	; 6
 22e:	d8 06       	cpc	r13, r24
 230:	80 e0       	ldi	r24, 0x00	; 0
 232:	e8 06       	cpc	r14, r24
 234:	49 f0       	breq	.+18     	; 0x248 <KEYPAD_init+0x6c>
 236:	f3 01       	movw	r30, r6
 238:	64 91       	lpm	r22, Z
 23a:	87 fc       	sbrc	r8, 7
 23c:	60 81       	ld	r22, Z
 23e:	f6 01       	movw	r30, r12
 240:	c4 91       	lpm	r28, Z
 242:	e7 fc       	sbrc	r14, 7
 244:	c0 81       	ld	r28, Z
 246:	df cf       	rjmp	.-66     	; 0x206 <KEYPAD_init+0x2a>
 248:	cf 91       	pop	r28
 24a:	ef 90       	pop	r14
 24c:	df 90       	pop	r13
 24e:	cf 90       	pop	r12
 250:	8f 90       	pop	r8
 252:	7f 90       	pop	r7
 254:	6f 90       	pop	r6
 256:	08 95       	ret

Disassembly of section .text.KEYPAD_read:

000000e8 <KEYPAD_read>:
  e8:	6f 92       	push	r6
  ea:	7f 92       	push	r7
  ec:	8f 92       	push	r8
  ee:	cf 92       	push	r12
  f0:	df 92       	push	r13
  f2:	ef 92       	push	r14
  f4:	cf 93       	push	r28
  f6:	df 93       	push	r29
  f8:	24 eb       	ldi	r18, 0xB4	; 180
  fa:	62 2e       	mov	r6, r18
  fc:	26 e0       	ldi	r18, 0x06	; 6
  fe:	72 2e       	mov	r7, r18
 100:	20 e0       	ldi	r18, 0x00	; 0
 102:	82 2e       	mov	r8, r18
 104:	c5 e0       	ldi	r28, 0x05	; 5
 106:	d0 e0       	ldi	r29, 0x00	; 0
 108:	84 eb       	ldi	r24, 0xB4	; 180
 10a:	c8 2e       	mov	r12, r24
 10c:	86 e0       	ldi	r24, 0x06	; 6
 10e:	d8 2e       	mov	r13, r24
 110:	80 e0       	ldi	r24, 0x00	; 0
 112:	e8 2e       	mov	r14, r24
 114:	65 e0       	ldi	r22, 0x05	; 5
 116:	41 e0       	ldi	r20, 0x01	; 1
 118:	83 e3       	ldi	r24, 0x33	; 51
 11a:	90 e0       	ldi	r25, 0x00	; 0
 11c:	be d1       	rcall	.+892    	; 0x49a <DIO_voidSetPinValue>
 11e:	2f ef       	ldi	r18, 0xFF	; 255
 120:	c2 1a       	sub	r12, r18
 122:	d2 0a       	sbc	r13, r18
 124:	e2 0a       	sbc	r14, r18
 126:	88 eb       	ldi	r24, 0xB8	; 184
 128:	c8 16       	cp	r12, r24
 12a:	86 e0       	ldi	r24, 0x06	; 6
 12c:	d8 06       	cpc	r13, r24
 12e:	80 e0       	ldi	r24, 0x00	; 0
 130:	e8 06       	cpc	r14, r24
 132:	29 f0       	breq	.+10     	; 0x13e <KEYPAD_read+0x56>
 134:	f6 01       	movw	r30, r12
 136:	64 91       	lpm	r22, Z
 138:	e7 fc       	sbrc	r14, 7
 13a:	60 81       	ld	r22, Z
 13c:	ec cf       	rjmp	.-40     	; 0x116 <KEYPAD_read+0x2e>
 13e:	40 e0       	ldi	r20, 0x00	; 0
 140:	6c 2f       	mov	r22, r28
 142:	83 e3       	ldi	r24, 0x33	; 51
 144:	90 e0       	ldi	r25, 0x00	; 0
 146:	a9 d1       	rcall	.+850    	; 0x49a <DIO_voidSetPinValue>
 148:	90 eb       	ldi	r25, 0xB0	; 176
 14a:	c9 2e       	mov	r12, r25
 14c:	96 e0       	ldi	r25, 0x06	; 6
 14e:	d9 2e       	mov	r13, r25
 150:	90 e0       	ldi	r25, 0x00	; 0
 152:	e9 2e       	mov	r14, r25
 154:	67 e0       	ldi	r22, 0x07	; 7
 156:	c0 e0       	ldi	r28, 0x00	; 0
 158:	80 e3       	ldi	r24, 0x30	; 48
 15a:	90 e0       	ldi	r25, 0x00	; 0
 15c:	61 d1       	rcall	.+706    	; 0x420 <DIO_voidGetPinValue>
 15e:	88 23       	and	r24, r24
 160:	81 f0       	breq	.+32     	; 0x182 <KEYPAD_read+0x9a>
 162:	cf 5f       	subi	r28, 0xFF	; 255
 164:	8f ef       	ldi	r24, 0xFF	; 255
 166:	c8 1a       	sub	r12, r24
 168:	d8 0a       	sbc	r13, r24
 16a:	e8 0a       	sbc	r14, r24
 16c:	c4 30       	cpi	r28, 0x04	; 4
 16e:	d9 f0       	breq	.+54     	; 0x1a6 <KEYPAD_read+0xbe>
 170:	f6 01       	movw	r30, r12
 172:	64 91       	lpm	r22, Z
 174:	e7 fc       	sbrc	r14, 7
 176:	60 81       	ld	r22, Z
 178:	80 e3       	ldi	r24, 0x30	; 48
 17a:	90 e0       	ldi	r25, 0x00	; 0
 17c:	51 d1       	rcall	.+674    	; 0x420 <DIO_voidGetPinValue>
 17e:	81 11       	cpse	r24, r1
 180:	f0 cf       	rjmp	.-32     	; 0x162 <KEYPAD_read+0x7a>
 182:	8c 2f       	mov	r24, r28
 184:	90 e0       	ldi	r25, 0x00	; 0
 186:	24 e0       	ldi	r18, 0x04	; 4
 188:	d2 9f       	mul	r29, r18
 18a:	80 0d       	add	r24, r0
 18c:	91 1d       	adc	r25, r1
 18e:	11 24       	eor	r1, r1
 190:	09 2e       	mov	r0, r25
 192:	00 0c       	add	r0, r0
 194:	aa 0b       	sbc	r26, r26
 196:	88 54       	subi	r24, 0x48	; 72
 198:	99 4f       	sbci	r25, 0xF9	; 249
 19a:	af 4f       	sbci	r26, 0xFF	; 255
 19c:	fc 01       	movw	r30, r24
 19e:	84 91       	lpm	r24, Z
 1a0:	a7 fd       	sbrc	r26, 7
 1a2:	80 81       	ld	r24, Z
 1a4:	12 c0       	rjmp	.+36     	; 0x1ca <KEYPAD_read+0xe2>
 1a6:	89 ef       	ldi	r24, 0xF9	; 249
 1a8:	90 e0       	ldi	r25, 0x00	; 0
 1aa:	01 97       	sbiw	r24, 0x01	; 1
 1ac:	f1 f7       	brne	.-4      	; 0x1aa <KEYPAD_read+0xc2>
 1ae:	00 c0       	rjmp	.+0      	; 0x1b0 <KEYPAD_read+0xc8>
 1b0:	00 00       	nop
 1b2:	df 5f       	subi	r29, 0xFF	; 255
 1b4:	9f ef       	ldi	r25, 0xFF	; 255
 1b6:	69 1a       	sub	r6, r25
 1b8:	79 0a       	sbc	r7, r25
 1ba:	89 0a       	sbc	r8, r25
 1bc:	d4 30       	cpi	r29, 0x04	; 4
 1be:	29 f0       	breq	.+10     	; 0x1ca <KEYPAD_read+0xe2>
 1c0:	f3 01       	movw	r30, r6
 1c2:	c4 91       	lpm	r28, Z
 1c4:	87 fc       	sbrc	r8, 7
 1c6:	c0 81       	ld	r28, Z
 1c8:	9f cf       	rjmp	.-194    	; 0x108 <KEYPAD_read+0x20>
 1ca:	df 91       	pop	r29
 1cc:	cf 91       	pop	r28
 1ce:	ef 90       	pop	r14
 1d0:	df 90       	pop	r13
 1d2:	cf 90       	pop	r12
 1d4:	8f 90       	pop	r8
 1d6:	7f 90       	pop	r7
 1d8:	6f 90       	pop	r6
 1da:	08 95       	ret

Disassembly of section .text.startup.main:

000000ba <main>:
  ba:	76 d1       	rcall	.+748    	; 0x3a8 <SEVEN_SEG_init>
  bc:	8f d0       	rcall	.+286    	; 0x1dc <KEYPAD_init>
  be:	14 d0       	rcall	.+40     	; 0xe8 <KEYPAD_read>
  c0:	c8 2f       	mov	r28, r24
  c2:	88 23       	and	r24, r24
  c4:	e1 f3       	breq	.-8      	; 0xbe <main+0x4>
  c6:	90 e0       	ldi	r25, 0x00	; 0
  c8:	c0 97       	sbiw	r24, 0x30	; 48
  ca:	c6 d0       	rcall	.+396    	; 0x258 <SEVEN_SEG_write>
  cc:	0d d0       	rcall	.+26     	; 0xe8 <KEYPAD_read>
  ce:	c8 17       	cp	r28, r24
  d0:	e9 f3       	breq	.-6      	; 0xcc <main+0x12>
  d2:	89 ef       	ldi	r24, 0xF9	; 249
  d4:	90 e0       	ldi	r25, 0x00	; 0
  d6:	01 97       	sbiw	r24, 0x01	; 1
  d8:	f1 f7       	brne	.-4      	; 0xd6 <main+0x1c>
  da:	00 c0       	rjmp	.+0      	; 0xdc <main+0x22>
  dc:	00 00       	nop
  de:	ef cf       	rjmp	.-34     	; 0xbe <main+0x4>

Disassembly of section .text.DIO_voidSetPinDirection:

00000530 <DIO_voidSetPinDirection>:
 530:	0f 93       	push	r16
 532:	1f 93       	push	r17
 534:	06 2f       	mov	r16, r22
 536:	10 e0       	ldi	r17, 0x00	; 0
 538:	08 30       	cpi	r16, 0x08	; 8
 53a:	11 05       	cpc	r17, r1
 53c:	48 f4       	brcc	.+18     	; 0x550 <DIO_voidSetPinDirection+0x20>
 53e:	f8 01       	movw	r30, r16
 540:	e6 5d       	subi	r30, 0xD6	; 214
 542:	ff 4f       	sbci	r31, 0xFF	; 255
 544:	ae c0       	rjmp	.+348    	; 0x6a2 <__tablejump2__>
 546:	fc 01       	movw	r30, r24
 548:	21 81       	ldd	r18, Z+1	; 0x01
 54a:	40 fb       	bst	r20, 0
 54c:	27 f9       	bld	r18, 7
 54e:	21 83       	std	Z+1, r18	; 0x01
 550:	1f 91       	pop	r17
 552:	0f 91       	pop	r16
 554:	08 95       	ret
 556:	fc 01       	movw	r30, r24
 558:	21 81       	ldd	r18, Z+1	; 0x01
 55a:	40 fb       	bst	r20, 0
 55c:	26 f9       	bld	r18, 6
 55e:	21 83       	std	Z+1, r18	; 0x01
 560:	1f 91       	pop	r17
 562:	0f 91       	pop	r16
 564:	08 95       	ret
 566:	fc 01       	movw	r30, r24
 568:	21 81       	ldd	r18, Z+1	; 0x01
 56a:	40 fb       	bst	r20, 0
 56c:	20 f9       	bld	r18, 0
 56e:	21 83       	std	Z+1, r18	; 0x01
 570:	1f 91       	pop	r17
 572:	0f 91       	pop	r16
 574:	08 95       	ret
 576:	fc 01       	movw	r30, r24
 578:	21 81       	ldd	r18, Z+1	; 0x01
 57a:	40 fb       	bst	r20, 0
 57c:	21 f9       	bld	r18, 1
 57e:	21 83       	std	Z+1, r18	; 0x01
 580:	1f 91       	pop	r17
 582:	0f 91       	pop	r16
 584:	08 95       	ret
 586:	fc 01       	movw	r30, r24
 588:	21 81       	ldd	r18, Z+1	; 0x01
 58a:	40 fb       	bst	r20, 0
 58c:	22 f9       	bld	r18, 2
 58e:	21 83       	std	Z+1, r18	; 0x01
 590:	1f 91       	pop	r17
 592:	0f 91       	pop	r16
 594:	08 95       	ret
 596:	fc 01       	movw	r30, r24
 598:	21 81       	ldd	r18, Z+1	; 0x01
 59a:	40 fb       	bst	r20, 0
 59c:	23 f9       	bld	r18, 3
 59e:	21 83       	std	Z+1, r18	; 0x01
 5a0:	1f 91       	pop	r17
 5a2:	0f 91       	pop	r16
 5a4:	08 95       	ret
 5a6:	fc 01       	movw	r30, r24
 5a8:	21 81       	ldd	r18, Z+1	; 0x01
 5aa:	40 fb       	bst	r20, 0
 5ac:	24 f9       	bld	r18, 4
 5ae:	21 83       	std	Z+1, r18	; 0x01
 5b0:	1f 91       	pop	r17
 5b2:	0f 91       	pop	r16
 5b4:	08 95       	ret
 5b6:	fc 01       	movw	r30, r24
 5b8:	21 81       	ldd	r18, Z+1	; 0x01
 5ba:	40 fb       	bst	r20, 0
 5bc:	25 f9       	bld	r18, 5
 5be:	21 83       	std	Z+1, r18	; 0x01
 5c0:	1f 91       	pop	r17
 5c2:	0f 91       	pop	r16
 5c4:	08 95       	ret

Disassembly of section .text.DIO_voidSetPinValue:

0000049a <DIO_voidSetPinValue>:
 49a:	0f 93       	push	r16
 49c:	1f 93       	push	r17
 49e:	06 2f       	mov	r16, r22
 4a0:	10 e0       	ldi	r17, 0x00	; 0
 4a2:	08 30       	cpi	r16, 0x08	; 8
 4a4:	11 05       	cpc	r17, r1
 4a6:	48 f4       	brcc	.+18     	; 0x4ba <DIO_voidSetPinValue+0x20>
 4a8:	f8 01       	movw	r30, r16
 4aa:	ee 5c       	subi	r30, 0xCE	; 206
 4ac:	ff 4f       	sbci	r31, 0xFF	; 255
 4ae:	f9 c0       	rjmp	.+498    	; 0x6a2 <__tablejump2__>
 4b0:	fc 01       	movw	r30, r24
 4b2:	22 81       	ldd	r18, Z+2	; 0x02
 4b4:	40 fb       	bst	r20, 0
 4b6:	27 f9       	bld	r18, 7
 4b8:	22 83       	std	Z+2, r18	; 0x02
 4ba:	1f 91       	pop	r17
 4bc:	0f 91       	pop	r16
 4be:	08 95       	ret
 4c0:	fc 01       	movw	r30, r24
 4c2:	22 81       	ldd	r18, Z+2	; 0x02
 4c4:	40 fb       	bst	r20, 0
 4c6:	26 f9       	bld	r18, 6
 4c8:	22 83       	std	Z+2, r18	; 0x02
 4ca:	1f 91       	pop	r17
 4cc:	0f 91       	pop	r16
 4ce:	08 95       	ret
 4d0:	fc 01       	movw	r30, r24
 4d2:	22 81       	ldd	r18, Z+2	; 0x02
 4d4:	40 fb       	bst	r20, 0
 4d6:	20 f9       	bld	r18, 0
 4d8:	22 83       	std	Z+2, r18	; 0x02
 4da:	1f 91       	pop	r17
 4dc:	0f 91       	pop	r16
 4de:	08 95       	ret
 4e0:	fc 01       	movw	r30, r24
 4e2:	22 81       	ldd	r18, Z+2	; 0x02
 4e4:	40 fb       	bst	r20, 0
 4e6:	21 f9       	bld	r18, 1
 4e8:	22 83       	std	Z+2, r18	; 0x02
 4ea:	1f 91       	pop	r17
 4ec:	0f 91       	pop	r16
 4ee:	08 95       	ret
 4f0:	fc 01       	movw	r30, r24
 4f2:	22 81       	ldd	r18, Z+2	; 0x02
 4f4:	40 fb       	bst	r20, 0
 4f6:	22 f9       	bld	r18, 2
 4f8:	22 83       	std	Z+2, r18	; 0x02
 4fa:	1f 91       	pop	r17
 4fc:	0f 91       	pop	r16
 4fe:	08 95       	ret
 500:	fc 01       	movw	r30, r24
 502:	22 81       	ldd	r18, Z+2	; 0x02
 504:	40 fb       	bst	r20, 0
 506:	23 f9       	bld	r18, 3
 508:	22 83       	std	Z+2, r18	; 0x02
 50a:	1f 91       	pop	r17
 50c:	0f 91       	pop	r16
 50e:	08 95       	ret
 510:	fc 01       	movw	r30, r24
 512:	22 81       	ldd	r18, Z+2	; 0x02
 514:	40 fb       	bst	r20, 0
 516:	24 f9       	bld	r18, 4
 518:	22 83       	std	Z+2, r18	; 0x02
 51a:	1f 91       	pop	r17
 51c:	0f 91       	pop	r16
 51e:	08 95       	ret
 520:	fc 01       	movw	r30, r24
 522:	22 81       	ldd	r18, Z+2	; 0x02
 524:	40 fb       	bst	r20, 0
 526:	25 f9       	bld	r18, 5
 528:	22 83       	std	Z+2, r18	; 0x02
 52a:	1f 91       	pop	r17
 52c:	0f 91       	pop	r16
 52e:	08 95       	ret

Disassembly of section .text.DIO_voidGetPinValue:

00000420 <DIO_voidGetPinValue>:
 420:	46 2f       	mov	r20, r22
 422:	50 e0       	ldi	r21, 0x00	; 0
 424:	48 30       	cpi	r20, 0x08	; 8
 426:	51 05       	cpc	r21, r1
 428:	48 f4       	brcc	.+18     	; 0x43c <DIO_voidGetPinValue+0x1c>
 42a:	fa 01       	movw	r30, r20
 42c:	e6 5c       	subi	r30, 0xC6	; 198
 42e:	ff 4f       	sbci	r31, 0xFF	; 255
 430:	38 c1       	rjmp	.+624    	; 0x6a2 <__tablejump2__>
 432:	fc 01       	movw	r30, r24
 434:	20 81       	ld	r18, Z
 436:	25 fb       	bst	r18, 5
 438:	22 27       	eor	r18, r18
 43a:	20 f9       	bld	r18, 0
 43c:	82 2f       	mov	r24, r18
 43e:	08 95       	ret
 440:	fc 01       	movw	r30, r24
 442:	20 81       	ld	r18, Z
 444:	26 fb       	bst	r18, 6
 446:	22 27       	eor	r18, r18
 448:	20 f9       	bld	r18, 0
 44a:	82 2f       	mov	r24, r18
 44c:	08 95       	ret
 44e:	fc 01       	movw	r30, r24
 450:	20 81       	ld	r18, Z
 452:	27 fb       	bst	r18, 7
 454:	22 27       	eor	r18, r18
 456:	20 f9       	bld	r18, 0
 458:	82 2f       	mov	r24, r18
 45a:	08 95       	ret
 45c:	fc 01       	movw	r30, r24
 45e:	20 81       	ld	r18, Z
 460:	21 70       	andi	r18, 0x01	; 1
 462:	82 2f       	mov	r24, r18
 464:	08 95       	ret
 466:	fc 01       	movw	r30, r24
 468:	20 81       	ld	r18, Z
 46a:	26 95       	lsr	r18
 46c:	21 70       	andi	r18, 0x01	; 1
 46e:	82 2f       	mov	r24, r18
 470:	08 95       	ret
 472:	fc 01       	movw	r30, r24
 474:	20 81       	ld	r18, Z
 476:	22 fb       	bst	r18, 2
 478:	22 27       	eor	r18, r18
 47a:	20 f9       	bld	r18, 0
 47c:	82 2f       	mov	r24, r18
 47e:	08 95       	ret
 480:	fc 01       	movw	r30, r24
 482:	20 81       	ld	r18, Z
 484:	23 fb       	bst	r18, 3
 486:	22 27       	eor	r18, r18
 488:	20 f9       	bld	r18, 0
 48a:	82 2f       	mov	r24, r18
 48c:	08 95       	ret
 48e:	fc 01       	movw	r30, r24
 490:	20 81       	ld	r18, Z
 492:	22 95       	swap	r18
 494:	21 70       	andi	r18, 0x01	; 1
 496:	82 2f       	mov	r24, r18
 498:	08 95       	ret

Disassembly of section .text.SEVEN_SEG_init:

000003a8 <SEVEN_SEG_init>:
 3a8:	41 e0       	ldi	r20, 0x01	; 1
 3aa:	66 e0       	ldi	r22, 0x06	; 6
 3ac:	86 e3       	ldi	r24, 0x36	; 54
 3ae:	90 e0       	ldi	r25, 0x00	; 0
 3b0:	bf d0       	rcall	.+382    	; 0x530 <DIO_voidSetPinDirection>
 3b2:	41 e0       	ldi	r20, 0x01	; 1
 3b4:	65 e0       	ldi	r22, 0x05	; 5
 3b6:	86 e3       	ldi	r24, 0x36	; 54
 3b8:	90 e0       	ldi	r25, 0x00	; 0
 3ba:	ba d0       	rcall	.+372    	; 0x530 <DIO_voidSetPinDirection>
 3bc:	41 e0       	ldi	r20, 0x01	; 1
 3be:	62 e0       	ldi	r22, 0x02	; 2
 3c0:	89 e3       	ldi	r24, 0x39	; 57
 3c2:	90 e0       	ldi	r25, 0x00	; 0
 3c4:	b5 d0       	rcall	.+362    	; 0x530 <DIO_voidSetPinDirection>
 3c6:	41 e0       	ldi	r20, 0x01	; 1
 3c8:	63 e0       	ldi	r22, 0x03	; 3
 3ca:	89 e3       	ldi	r24, 0x39	; 57
 3cc:	90 e0       	ldi	r25, 0x00	; 0
 3ce:	b0 d0       	rcall	.+352    	; 0x530 <DIO_voidSetPinDirection>
 3d0:	41 e0       	ldi	r20, 0x01	; 1
 3d2:	66 e0       	ldi	r22, 0x06	; 6
 3d4:	86 e3       	ldi	r24, 0x36	; 54
 3d6:	90 e0       	ldi	r25, 0x00	; 0
 3d8:	60 d0       	rcall	.+192    	; 0x49a <DIO_voidSetPinValue>
 3da:	41 e0       	ldi	r20, 0x01	; 1
 3dc:	65 e0       	ldi	r22, 0x05	; 5
 3de:	86 e3       	ldi	r24, 0x36	; 54
 3e0:	90 e0       	ldi	r25, 0x00	; 0
 3e2:	5b d0       	rcall	.+182    	; 0x49a <DIO_voidSetPinValue>
 3e4:	41 e0       	ldi	r20, 0x01	; 1
 3e6:	62 e0       	ldi	r22, 0x02	; 2
 3e8:	89 e3       	ldi	r24, 0x39	; 57
 3ea:	90 e0       	ldi	r25, 0x00	; 0
 3ec:	56 d0       	rcall	.+172    	; 0x49a <DIO_voidSetPinValue>
 3ee:	41 e0       	ldi	r20, 0x01	; 1
 3f0:	63 e0       	ldi	r22, 0x03	; 3
 3f2:	89 e3       	ldi	r24, 0x39	; 57
 3f4:	90 e0       	ldi	r25, 0x00	; 0
 3f6:	51 d0       	rcall	.+162    	; 0x49a <DIO_voidSetPinValue>
 3f8:	41 e0       	ldi	r20, 0x01	; 1
 3fa:	60 e0       	ldi	r22, 0x00	; 0
 3fc:	86 e3       	ldi	r24, 0x36	; 54
 3fe:	90 e0       	ldi	r25, 0x00	; 0
 400:	97 d0       	rcall	.+302    	; 0x530 <DIO_voidSetPinDirection>
 402:	41 e0       	ldi	r20, 0x01	; 1
 404:	61 e0       	ldi	r22, 0x01	; 1
 406:	86 e3       	ldi	r24, 0x36	; 54
 408:	90 e0       	ldi	r25, 0x00	; 0
 40a:	92 d0       	rcall	.+292    	; 0x530 <DIO_voidSetPinDirection>
 40c:	41 e0       	ldi	r20, 0x01	; 1
 40e:	62 e0       	ldi	r22, 0x02	; 2
 410:	86 e3       	ldi	r24, 0x36	; 54
 412:	90 e0       	ldi	r25, 0x00	; 0
 414:	8d d0       	rcall	.+282    	; 0x530 <DIO_voidSetPinDirection>
 416:	41 e0       	ldi	r20, 0x01	; 1
 418:	64 e0       	ldi	r22, 0x04	; 4
 41a:	86 e3       	ldi	r24, 0x36	; 54
 41c:	90 e0       	ldi	r25, 0x00	; 0
 41e:	88 c0       	rjmp	.+272    	; 0x530 <DIO_voidSetPinDirection>

Disassembly of section .text.SEVEN_SEG_write_byte:

000005e4 <SEVEN_SEG_write_byte>:
 5e4:	90 e0       	ldi	r25, 0x00	; 0
 5e6:	8a 30       	cpi	r24, 0x0A	; 10
 5e8:	91 05       	cpc	r25, r1
 5ea:	08 f0       	brcs	.+2      	; 0x5ee <SEVEN_SEG_write_byte+0xa>
 5ec:	08 95       	ret
 5ee:	fc 01       	movw	r30, r24
 5f0:	ee 5b       	subi	r30, 0xBE	; 190
 5f2:	ff 4f       	sbci	r31, 0xFF	; 255
 5f4:	56 c0       	rjmp	.+172    	; 0x6a2 <__tablejump2__>
 5f6:	40 e0       	ldi	r20, 0x00	; 0
 5f8:	60 e0       	ldi	r22, 0x00	; 0
 5fa:	86 e3       	ldi	r24, 0x36	; 54
 5fc:	90 e0       	ldi	r25, 0x00	; 0
 5fe:	4d df       	rcall	.-358    	; 0x49a <DIO_voidSetPinValue>
 600:	40 e0       	ldi	r20, 0x00	; 0
 602:	61 e0       	ldi	r22, 0x01	; 1
 604:	86 e3       	ldi	r24, 0x36	; 54
 606:	90 e0       	ldi	r25, 0x00	; 0
 608:	48 df       	rcall	.-368    	; 0x49a <DIO_voidSetPinValue>
 60a:	40 e0       	ldi	r20, 0x00	; 0
 60c:	62 e0       	ldi	r22, 0x02	; 2
 60e:	86 e3       	ldi	r24, 0x36	; 54
 610:	90 e0       	ldi	r25, 0x00	; 0
 612:	43 df       	rcall	.-378    	; 0x49a <DIO_voidSetPinValue>
 614:	41 e0       	ldi	r20, 0x01	; 1
 616:	64 e0       	ldi	r22, 0x04	; 4
 618:	86 e3       	ldi	r24, 0x36	; 54
 61a:	90 e0       	ldi	r25, 0x00	; 0
 61c:	3e cf       	rjmp	.-388    	; 0x49a <DIO_voidSetPinValue>
 61e:	41 e0       	ldi	r20, 0x01	; 1
 620:	eb cf       	rjmp	.-42     	; 0x5f8 <SEVEN_SEG_write_byte+0x14>
 622:	40 e0       	ldi	r20, 0x00	; 0
 624:	60 e0       	ldi	r22, 0x00	; 0
 626:	86 e3       	ldi	r24, 0x36	; 54
 628:	90 e0       	ldi	r25, 0x00	; 0
 62a:	37 df       	rcall	.-402    	; 0x49a <DIO_voidSetPinValue>
 62c:	40 e0       	ldi	r20, 0x00	; 0
 62e:	61 e0       	ldi	r22, 0x01	; 1
 630:	86 e3       	ldi	r24, 0x36	; 54
 632:	90 e0       	ldi	r25, 0x00	; 0
 634:	32 df       	rcall	.-412    	; 0x49a <DIO_voidSetPinValue>
 636:	40 e0       	ldi	r20, 0x00	; 0
 638:	62 e0       	ldi	r22, 0x02	; 2
 63a:	86 e3       	ldi	r24, 0x36	; 54
 63c:	90 e0       	ldi	r25, 0x00	; 0
 63e:	2d df       	rcall	.-422    	; 0x49a <DIO_voidSetPinValue>
 640:	40 e0       	ldi	r20, 0x00	; 0
 642:	64 e0       	ldi	r22, 0x04	; 4
 644:	86 e3       	ldi	r24, 0x36	; 54
 646:	90 e0       	ldi	r25, 0x00	; 0
 648:	28 cf       	rjmp	.-432    	; 0x49a <DIO_voidSetPinValue>
 64a:	41 e0       	ldi	r20, 0x01	; 1
 64c:	eb cf       	rjmp	.-42     	; 0x624 <SEVEN_SEG_write_byte+0x40>
 64e:	40 e0       	ldi	r20, 0x00	; 0
 650:	60 e0       	ldi	r22, 0x00	; 0
 652:	86 e3       	ldi	r24, 0x36	; 54
 654:	90 e0       	ldi	r25, 0x00	; 0
 656:	21 df       	rcall	.-446    	; 0x49a <DIO_voidSetPinValue>
 658:	41 e0       	ldi	r20, 0x01	; 1
 65a:	e9 cf       	rjmp	.-46     	; 0x62e <SEVEN_SEG_write_byte+0x4a>
 65c:	41 e0       	ldi	r20, 0x01	; 1
 65e:	60 e0       	ldi	r22, 0x00	; 0
 660:	86 e3       	ldi	r24, 0x36	; 54
 662:	90 e0       	ldi	r25, 0x00	; 0
 664:	1a df       	rcall	.-460    	; 0x49a <DIO_voidSetPinValue>
 666:	41 e0       	ldi	r20, 0x01	; 1
 668:	e2 cf       	rjmp	.-60     	; 0x62e <SEVEN_SEG_write_byte+0x4a>
 66a:	40 e0       	ldi	r20, 0x00	; 0
 66c:	60 e0       	ldi	r22, 0x00	; 0
 66e:	86 e3       	ldi	r24, 0x36	; 54
 670:	90 e0       	ldi	r25, 0x00	; 0
 672:	13 df       	rcall	.-474    	; 0x49a <DIO_voidSetPinValue>
 674:	40 e0       	ldi	r20, 0x00	; 0
 676:	61 e0       	ldi	r22, 0x01	; 1
 678:	86 e3       	ldi	r24, 0x36	; 54
 67a:	90 e0       	ldi	r25, 0x00	; 0
 67c:	0e df       	rcall	.-484    	; 0x49a <DIO_voidSetPinValue>
 67e:	41 e0       	ldi	r20, 0x01	; 1
 680:	db cf       	rjmp	.-74     	; 0x638 <SEVEN_SEG_write_byte+0x54>
 682:	41 e0       	ldi	r20, 0x01	; 1
 684:	f3 cf       	rjmp	.-26     	; 0x66c <SEVEN_SEG_write_byte+0x88>
 686:	40 e0       	ldi	r20, 0x00	; 0
 688:	60 e0       	ldi	r22, 0x00	; 0
 68a:	86 e3       	ldi	r24, 0x36	; 54
 68c:	90 e0       	ldi	r25, 0x00	; 0
 68e:	05 df       	rcall	.-502    	; 0x49a <DIO_voidSetPinValue>
 690:	41 e0       	ldi	r20, 0x01	; 1
 692:	61 e0       	ldi	r22, 0x01	; 1
 694:	86 e3       	ldi	r24, 0x36	; 54
 696:	90 e0       	ldi	r25, 0x00	; 0
 698:	00 df       	rcall	.-512    	; 0x49a <DIO_voidSetPinValue>
 69a:	41 e0       	ldi	r20, 0x01	; 1
 69c:	cd cf       	rjmp	.-102    	; 0x638 <SEVEN_SEG_write_byte+0x54>
 69e:	41 e0       	ldi	r20, 0x01	; 1
 6a0:	f3 cf       	rjmp	.-26     	; 0x688 <SEVEN_SEG_write_byte+0xa4>

Disassembly of section .text.SEVEN_SEG_write:

00000258 <SEVEN_SEG_write>:
 258:	0f 93       	push	r16
 25a:	1f 93       	push	r17
 25c:	cf 93       	push	r28
 25e:	df 93       	push	r29
 260:	ec 01       	movw	r28, r24
 262:	41 e0       	ldi	r20, 0x01	; 1
 264:	63 e0       	ldi	r22, 0x03	; 3
 266:	89 e3       	ldi	r24, 0x39	; 57
 268:	90 e0       	ldi	r25, 0x00	; 0
 26a:	17 d1       	rcall	.+558    	; 0x49a <DIO_voidSetPinValue>
 26c:	40 e0       	ldi	r20, 0x00	; 0
 26e:	66 e0       	ldi	r22, 0x06	; 6
 270:	86 e3       	ldi	r24, 0x36	; 54
 272:	90 e0       	ldi	r25, 0x00	; 0
 274:	12 d1       	rcall	.+548    	; 0x49a <DIO_voidSetPinValue>
 276:	9e 01       	movw	r18, r28
 278:	36 95       	lsr	r19
 27a:	27 95       	ror	r18
 27c:	36 95       	lsr	r19
 27e:	27 95       	ror	r18
 280:	36 95       	lsr	r19
 282:	27 95       	ror	r18
 284:	a5 ec       	ldi	r26, 0xC5	; 197
 286:	b0 e2       	ldi	r27, 0x20	; 32
 288:	9e d1       	rcall	.+828    	; 0x5c6 <__umulhisi3>
 28a:	ac 01       	movw	r20, r24
 28c:	52 95       	swap	r21
 28e:	42 95       	swap	r20
 290:	4f 70       	andi	r20, 0x0F	; 15
 292:	45 27       	eor	r20, r21
 294:	5f 70       	andi	r21, 0x0F	; 15
 296:	45 27       	eor	r20, r21
 298:	9a 01       	movw	r18, r20
 29a:	ad ec       	ldi	r26, 0xCD	; 205
 29c:	bc ec       	ldi	r27, 0xCC	; 204
 29e:	93 d1       	rcall	.+806    	; 0x5c6 <__umulhisi3>
 2a0:	96 95       	lsr	r25
 2a2:	87 95       	ror	r24
 2a4:	96 95       	lsr	r25
 2a6:	87 95       	ror	r24
 2a8:	96 95       	lsr	r25
 2aa:	87 95       	ror	r24
 2ac:	34 2f       	mov	r19, r20
 2ae:	2a e0       	ldi	r18, 0x0A	; 10
 2b0:	82 9f       	mul	r24, r18
 2b2:	30 19       	sub	r19, r0
 2b4:	11 24       	eor	r1, r1
 2b6:	83 2f       	mov	r24, r19
 2b8:	95 d1       	rcall	.+810    	; 0x5e4 <SEVEN_SEG_write_byte>
 2ba:	85 ed       	ldi	r24, 0xD5	; 213
 2bc:	96 e0       	ldi	r25, 0x06	; 6
 2be:	01 97       	sbiw	r24, 0x01	; 1
 2c0:	f1 f7       	brne	.-4      	; 0x2be <SEVEN_SEG_write+0x66>
 2c2:	00 c0       	rjmp	.+0      	; 0x2c4 <SEVEN_SEG_write+0x6c>
 2c4:	00 00       	nop
 2c6:	41 e0       	ldi	r20, 0x01	; 1
 2c8:	66 e0       	ldi	r22, 0x06	; 6
 2ca:	86 e3       	ldi	r24, 0x36	; 54
 2cc:	90 e0       	ldi	r25, 0x00	; 0
 2ce:	e5 d0       	rcall	.+458    	; 0x49a <DIO_voidSetPinValue>
 2d0:	40 e0       	ldi	r20, 0x00	; 0
 2d2:	65 e0       	ldi	r22, 0x05	; 5
 2d4:	86 e3       	ldi	r24, 0x36	; 54
 2d6:	90 e0       	ldi	r25, 0x00	; 0
 2d8:	e0 d0       	rcall	.+448    	; 0x49a <DIO_voidSetPinValue>
 2da:	9e 01       	movw	r18, r28
 2dc:	36 95       	lsr	r19
 2de:	27 95       	ror	r18
 2e0:	36 95       	lsr	r19
 2e2:	27 95       	ror	r18
 2e4:	ab e7       	ldi	r26, 0x7B	; 123
 2e6:	b4 e1       	ldi	r27, 0x14	; 20
 2e8:	6e d1       	rcall	.+732    	; 0x5c6 <__umulhisi3>
 2ea:	ac 01       	movw	r20, r24
 2ec:	56 95       	lsr	r21
 2ee:	47 95       	ror	r20
 2f0:	9a 01       	movw	r18, r20
 2f2:	ad ec       	ldi	r26, 0xCD	; 205
 2f4:	bc ec       	ldi	r27, 0xCC	; 204
 2f6:	67 d1       	rcall	.+718    	; 0x5c6 <__umulhisi3>
 2f8:	96 95       	lsr	r25
 2fa:	87 95       	ror	r24
 2fc:	96 95       	lsr	r25
 2fe:	87 95       	ror	r24
 300:	96 95       	lsr	r25
 302:	87 95       	ror	r24
 304:	34 2f       	mov	r19, r20
 306:	2a e0       	ldi	r18, 0x0A	; 10
 308:	82 9f       	mul	r24, r18
 30a:	30 19       	sub	r19, r0
 30c:	11 24       	eor	r1, r1
 30e:	83 2f       	mov	r24, r19
 310:	69 d1       	rcall	.+722    	; 0x5e4 <SEVEN_SEG_write_byte>
 312:	85 ed       	ldi	r24, 0xD5	; 213
 314:	96 e0       	ldi	r25, 0x06	; 6
 316:	01 97       	sbiw	r24, 0x01	; 1
 318:	f1 f7       	brne	.-4      	; 0x316 <SEVEN_SEG_write+0xbe>
 31a:	00 c0       	rjmp	.+0      	; 0x31c <SEVEN_SEG_write+0xc4>
 31c:	00 00       	nop
 31e:	41 e0       	ldi	r20, 0x01	; 1
 320:	65 e0       	ldi	r22, 0x05	; 5
 322:	86 e3       	ldi	r24, 0x36	; 54
 324:	90 e0       	ldi	r25, 0x00	; 0
 326:	b9 d0       	rcall	.+370    	; 0x49a <DIO_voidSetPinValue>
 328:	40 e0       	ldi	r20, 0x00	; 0
 32a:	62 e0       	ldi	r22, 0x02	; 2
 32c:	89 e3       	ldi	r24, 0x39	; 57
 32e:	90 e0       	ldi	r25, 0x00	; 0
 330:	b4 d0       	rcall	.+360    	; 0x49a <DIO_voidSetPinValue>
 332:	9e 01       	movw	r18, r28
 334:	ad ec       	ldi	r26, 0xCD	; 205
 336:	bc ec       	ldi	r27, 0xCC	; 204
 338:	46 d1       	rcall	.+652    	; 0x5c6 <__umulhisi3>
 33a:	8c 01       	movw	r16, r24
 33c:	16 95       	lsr	r17
 33e:	07 95       	ror	r16
 340:	16 95       	lsr	r17
 342:	07 95       	ror	r16
 344:	16 95       	lsr	r17
 346:	07 95       	ror	r16
 348:	98 01       	movw	r18, r16
 34a:	3d d1       	rcall	.+634    	; 0x5c6 <__umulhisi3>
 34c:	96 95       	lsr	r25
 34e:	87 95       	ror	r24
 350:	96 95       	lsr	r25
 352:	87 95       	ror	r24
 354:	96 95       	lsr	r25
 356:	87 95       	ror	r24
 358:	30 2f       	mov	r19, r16
 35a:	2a e0       	ldi	r18, 0x0A	; 10
 35c:	82 9f       	mul	r24, r18
 35e:	30 19       	sub	r19, r0
 360:	11 24       	eor	r1, r1
 362:	83 2f       	mov	r24, r19
 364:	3f d1       	rcall	.+638    	; 0x5e4 <SEVEN_SEG_write_byte>
 366:	85 ed       	ldi	r24, 0xD5	; 213
 368:	96 e0       	ldi	r25, 0x06	; 6
 36a:	01 97       	sbiw	r24, 0x01	; 1
 36c:	f1 f7       	brne	.-4      	; 0x36a <SEVEN_SEG_write+0x112>
 36e:	00 c0       	rjmp	.+0      	; 0x370 <SEVEN_SEG_write+0x118>
 370:	00 00       	nop
 372:	41 e0       	ldi	r20, 0x01	; 1
 374:	62 e0       	ldi	r22, 0x02	; 2
 376:	89 e3       	ldi	r24, 0x39	; 57
 378:	90 e0       	ldi	r25, 0x00	; 0
 37a:	8f d0       	rcall	.+286    	; 0x49a <DIO_voidSetPinValue>
 37c:	40 e0       	ldi	r20, 0x00	; 0
 37e:	63 e0       	ldi	r22, 0x03	; 3
 380:	89 e3       	ldi	r24, 0x39	; 57
 382:	90 e0       	ldi	r25, 0x00	; 0
 384:	8a d0       	rcall	.+276    	; 0x49a <DIO_voidSetPinValue>
 386:	8c 2f       	mov	r24, r28
 388:	9a e0       	ldi	r25, 0x0A	; 10
 38a:	09 9f       	mul	r16, r25
 38c:	80 19       	sub	r24, r0
 38e:	11 24       	eor	r1, r1
 390:	29 d1       	rcall	.+594    	; 0x5e4 <SEVEN_SEG_write_byte>
 392:	85 ed       	ldi	r24, 0xD5	; 213
 394:	96 e0       	ldi	r25, 0x06	; 6
 396:	01 97       	sbiw	r24, 0x01	; 1
 398:	f1 f7       	brne	.-4      	; 0x396 <SEVEN_SEG_write+0x13e>
 39a:	00 c0       	rjmp	.+0      	; 0x39c <SEVEN_SEG_write+0x144>
 39c:	00 00       	nop
 39e:	df 91       	pop	r29
 3a0:	cf 91       	pop	r28
 3a2:	1f 91       	pop	r17
 3a4:	0f 91       	pop	r16
 3a6:	08 95       	ret

Disassembly of section .text.libgcc:

000006a2 <__tablejump2__>:
 6a2:	ee 0f       	add	r30, r30
 6a4:	ff 1f       	adc	r31, r31
 6a6:	05 90       	lpm	r0, Z+
 6a8:	f4 91       	lpm	r31, Z
 6aa:	e0 2d       	mov	r30, r0
 6ac:	09 94       	ijmp

Disassembly of section .text.libgcc.mul:

000005c6 <__umulhisi3>:
 5c6:	a2 9f       	mul	r26, r18
 5c8:	b0 01       	movw	r22, r0
 5ca:	b3 9f       	mul	r27, r19
 5cc:	c0 01       	movw	r24, r0
 5ce:	a3 9f       	mul	r26, r19
 5d0:	70 0d       	add	r23, r0
 5d2:	81 1d       	adc	r24, r1
 5d4:	11 24       	eor	r1, r1
 5d6:	91 1d       	adc	r25, r1
 5d8:	b2 9f       	mul	r27, r18
 5da:	70 0d       	add	r23, r0
 5dc:	81 1d       	adc	r24, r1
 5de:	11 24       	eor	r1, r1
 5e0:	91 1d       	adc	r25, r1
 5e2:	08 95       	ret

Disassembly of section .text.__dummy_fini:

000000e0 <_fini>:
  e0:	08 95       	ret

Disassembly of section .text.__dummy_funcs_on_exit:

000000e6 <__funcs_on_exit>:
  e6:	08 95       	ret

Disassembly of section .text.__dummy_simulator_exit:

000000e2 <__simulator_exit>:
  e2:	08 95       	ret

Disassembly of section .text.exit:

000000ac <exit>:
  ac:	ec 01       	movw	r28, r24
  ae:	1b d0       	rcall	.+54     	; 0xe6 <__funcs_on_exit>
  b0:	17 d0       	rcall	.+46     	; 0xe0 <_fini>
  b2:	ce 01       	movw	r24, r28
  b4:	16 d0       	rcall	.+44     	; 0xe2 <__simulator_exit>
  b6:	ce 01       	movw	r24, r28
  b8:	15 d0       	rcall	.+42     	; 0xe4 <_Exit>

Disassembly of section .text._Exit:

000000e4 <_Exit>:
  e4:	e1 df       	rcall	.-62     	; 0xa8 <_exit>
