
seven_seg_app.elf:     file format elf32-avr

Sections:
Idx Name          Size      VMA       LMA       File off  Algn
  0 .text         000000a0  00000000  00000000  00000074  2**1
                  CONTENTS, ALLOC, LOAD, READONLY, CODE
  1 .data         00000000  00800060  00800060  000007be  2**0
                  ALLOC, LOAD, DATA
  2 .comment      0000002f  00000000  00000000  000007be  2**0
                  CONTENTS, READONLY
  3 .stack.descriptors.hdr 0000002a  00000000  00000000  000007ed  2**0
                  CONTENTS, READONLY
  4 .debug_aranges 00000098  00000000  00000000  00000817  2**0
                  CONTENTS, READONLY, DEBUGGING
  5 .debug_info   00001e9f  00000000  00000000  000008af  2**0
                  CONTENTS, READONLY, DEBUGGING
  6 .debug_abbrev 000007f1  00000000  00000000  0000274e  2**0
                  CONTENTS, READONLY, DEBUGGING
  7 .debug_line   00000696  00000000  00000000  00002f3f  2**0
                  CONTENTS, READONLY, DEBUGGING
  8 .debug_frame  00000114  00000000  00000000  000035d8  2**2
                  CONTENTS, READONLY, DEBUGGING
  9 .debug_str    0000020c  00000000  00000000  000036ec  2**0
                  CONTENTS, READONLY, DEBUGGING
 10 .debug_loc    00000553  00000000  00000000  000038f8  2**0
                  CONTENTS, READONLY, DEBUGGING
 11 .debug_ranges 00000068  00000000  00000000  00003e4b  2**0
                  CONTENTS, READONLY, DEBUGGING
 12 .text         00000004  0000073c  0000073c  000007b0  2**1
                  CONTENTS, ALLOC, LOAD, READONLY, CODE
 13 .note.gnu.avr.deviceinfo 0000003c  00000000  00000000  00003eb4  2**2
                  CONTENTS, READONLY, DEBUGGING
 14 .text.SEVEN_SEG_init 000000c2  00000534  00000534  000005a8  2**1
                  CONTENTS, ALLOC, LOAD, READONLY, CODE
 15 .text.SEVEN_SEG_write_byte 000002a8  000000a0  000000a0  00000114  2**1
                  CONTENTS, ALLOC, LOAD, READONLY, CODE
 16 .text.SEVEN_SEG_write 000001ec  00000348  00000348  000003bc  2**1
                  CONTENTS, ALLOC, LOAD, READONLY, CODE
 17 .text.DIO_voidSetPinDirection 0000007c  000005f6  000005f6  0000066a  2**1
                  CONTENTS, ALLOC, LOAD, READONLY, CODE
 18 .text.DIO_voidSetPinValue 0000007c  00000672  00000672  000006e6  2**1
                  CONTENTS, ALLOC, LOAD, READONLY, CODE
 19 .text.main    0000000e  00000722  00000722  00000796  2**1
                  CONTENTS, ALLOC, LOAD, READONLY, CODE
 20 .text.libgcc  0000000c  00000730  00000730  000007a4  2**1
                  CONTENTS, ALLOC, LOAD, READONLY, CODE
 21 .text.libgcc.mul 0000001e  000006ee  000006ee  00000762  2**1
                  CONTENTS, ALLOC, LOAD, READONLY, CODE
 22 .text.__dummy_fini 00000002  00000744  00000744  000007b8  2**1
                  CONTENTS, ALLOC, LOAD, READONLY, CODE
 23 .text.__dummy_funcs_on_exit 00000002  00000746  00000746  000007ba  2**1
                  CONTENTS, ALLOC, LOAD, READONLY, CODE
 24 .text.__dummy_simulator_exit 00000002  00000748  00000748  000007bc  2**1
                  CONTENTS, ALLOC, LOAD, READONLY, CODE
 25 .text.exit    00000016  0000070c  0000070c  00000780  2**1
                  CONTENTS, ALLOC, LOAD, READONLY, CODE
 26 .text._Exit   00000004  00000740  00000740  000007b4  2**1
                  CONTENTS, ALLOC, LOAD, READONLY, CODE

Disassembly of section .text:

00000000 <__vectors>:
   0:	0c 94 44 00 	jmp	0x88	; 0x88 <__ctors_end>
   4:	0c 94 9e 03 	jmp	0x73c	; 0x73c <__bad_interrupt>
   8:	0c 94 9e 03 	jmp	0x73c	; 0x73c <__bad_interrupt>
   c:	0c 94 9e 03 	jmp	0x73c	; 0x73c <__bad_interrupt>
  10:	0c 94 9e 03 	jmp	0x73c	; 0x73c <__bad_interrupt>
  14:	0c 94 9e 03 	jmp	0x73c	; 0x73c <__bad_interrupt>
  18:	0c 94 9e 03 	jmp	0x73c	; 0x73c <__bad_interrupt>
  1c:	0c 94 9e 03 	jmp	0x73c	; 0x73c <__bad_interrupt>
  20:	0c 94 9e 03 	jmp	0x73c	; 0x73c <__bad_interrupt>
  24:	0c 94 9e 03 	jmp	0x73c	; 0x73c <__bad_interrupt>
  28:	0c 94 9e 03 	jmp	0x73c	; 0x73c <__bad_interrupt>
  2c:	0c 94 9e 03 	jmp	0x73c	; 0x73c <__bad_interrupt>
  30:	0c 94 9e 03 	jmp	0x73c	; 0x73c <__bad_interrupt>
  34:	0c 94 9e 03 	jmp	0x73c	; 0x73c <__bad_interrupt>
  38:	0c 94 9e 03 	jmp	0x73c	; 0x73c <__bad_interrupt>
  3c:	0c 94 9e 03 	jmp	0x73c	; 0x73c <__bad_interrupt>
  40:	0c 94 9e 03 	jmp	0x73c	; 0x73c <__bad_interrupt>
  44:	0c 94 9e 03 	jmp	0x73c	; 0x73c <__bad_interrupt>
  48:	0c 94 9e 03 	jmp	0x73c	; 0x73c <__bad_interrupt>
  4c:	0c 94 9e 03 	jmp	0x73c	; 0x73c <__bad_interrupt>
  50:	0c 94 9e 03 	jmp	0x73c	; 0x73c <__bad_interrupt>
  54:	5a 00       	.word	0x005a	; ????
  56:	7b 00       	.word	0x007b	; ????
  58:	9c 00       	.word	0x009c	; ????
  5a:	bd 00       	.word	0x00bd	; ????
  5c:	de 00       	.word	0x00de	; ????
  5e:	ff 00       	.word	0x00ff	; ????
  60:	20 01       	movw	r4, r0
  62:	41 01       	movw	r8, r2
  64:	62 01       	movw	r12, r4
  66:	83 01       	movw	r16, r6
  68:	07 03       	mulsu	r16, r23
  6a:	0d 03       	fmul	r16, r21
  6c:	13 03       	mulsu	r17, r19
  6e:	19 03       	fmul	r17, r17
  70:	1f 03       	fmul	r17, r23
  72:	25 03       	mulsu	r18, r21
  74:	2b 03       	fmul	r18, r19
  76:	31 03       	mulsu	r19, r17
  78:	45 03       	mulsu	r20, r21
  7a:	4b 03       	fmul	r20, r19
  7c:	51 03       	mulsu	r21, r17
  7e:	57 03       	mulsu	r21, r23
  80:	5d 03       	fmul	r21, r21
  82:	63 03       	mulsu	r22, r19
  84:	69 03       	fmul	r22, r17
  86:	6f 03       	fmul	r22, r23

00000088 <__ctors_end>:
  88:	11 24       	eor	r1, r1
  8a:	1f be       	out	0x3f, r1	; 63
  8c:	cf e5       	ldi	r28, 0x5F	; 95
  8e:	d8 e0       	ldi	r29, 0x08	; 8
  90:	de bf       	out	0x3e, r29	; 62
  92:	cd bf       	out	0x3d, r28	; 61
  94:	0e 94 91 03 	call	0x722	; 0x722 <main>
  98:	0c 94 86 03 	jmp	0x70c	; 0x70c <exit>

0000009c <_exit>:
  9c:	f8 94       	cli

0000009e <__stop_program>:
  9e:	ff cf       	rjmp	.-2      	; 0x9e <__stop_program>

Disassembly of section .text:

0000073c <__bad_interrupt>:
 73c:	0c 94 00 00 	jmp	0	; 0x0 <__TEXT_REGION_ORIGIN__>

Disassembly of section .text.SEVEN_SEG_init:

00000534 <SEVEN_SEG_init>:
 */
#include "segement_interface.h"
#include "util/delay.h"
void SEVEN_SEG_init(void)
{
	DIO_voidSetPinDirection(PERIPHERAL_B_BASE,B6,1);
 534:	41 e0       	ldi	r20, 0x01	; 1
 536:	50 e0       	ldi	r21, 0x00	; 0
 538:	66 e0       	ldi	r22, 0x06	; 6
 53a:	70 e0       	ldi	r23, 0x00	; 0
 53c:	86 e3       	ldi	r24, 0x36	; 54
 53e:	90 e0       	ldi	r25, 0x00	; 0
 540:	0e 94 fb 02 	call	0x5f6	; 0x5f6 <DIO_voidSetPinDirection>
	DIO_voidSetPinDirection(PERIPHERAL_B_BASE,B5,1);
 544:	41 e0       	ldi	r20, 0x01	; 1
 546:	50 e0       	ldi	r21, 0x00	; 0
 548:	65 e0       	ldi	r22, 0x05	; 5
 54a:	70 e0       	ldi	r23, 0x00	; 0
 54c:	86 e3       	ldi	r24, 0x36	; 54
 54e:	90 e0       	ldi	r25, 0x00	; 0
 550:	0e 94 fb 02 	call	0x5f6	; 0x5f6 <DIO_voidSetPinDirection>
	DIO_voidSetPinDirection(PERIPHERAL_A_BASE,A2,1);
 554:	41 e0       	ldi	r20, 0x01	; 1
 556:	50 e0       	ldi	r21, 0x00	; 0
 558:	62 e0       	ldi	r22, 0x02	; 2
 55a:	70 e0       	ldi	r23, 0x00	; 0
 55c:	89 e3       	ldi	r24, 0x39	; 57
 55e:	90 e0       	ldi	r25, 0x00	; 0
 560:	0e 94 fb 02 	call	0x5f6	; 0x5f6 <DIO_voidSetPinDirection>
	DIO_voidSetPinDirection(PERIPHERAL_A_BASE,A3,1);
 564:	41 e0       	ldi	r20, 0x01	; 1
 566:	50 e0       	ldi	r21, 0x00	; 0
 568:	63 e0       	ldi	r22, 0x03	; 3
 56a:	70 e0       	ldi	r23, 0x00	; 0
 56c:	89 e3       	ldi	r24, 0x39	; 57
 56e:	90 e0       	ldi	r25, 0x00	; 0
 570:	0e 94 fb 02 	call	0x5f6	; 0x5f6 <DIO_voidSetPinDirection>
	DIO_voidSetPinValue(PERIPHERAL_B_BASE,B6,1);
 574:	41 e0       	ldi	r20, 0x01	; 1
 576:	50 e0       	ldi	r21, 0x00	; 0
 578:	66 e0       	ldi	r22, 0x06	; 6
 57a:	70 e0       	ldi	r23, 0x00	; 0
 57c:	86 e3       	ldi	r24, 0x36	; 54
 57e:	90 e0       	ldi	r25, 0x00	; 0
 580:	0e 94 39 03 	call	0x672	; 0x672 <DIO_voidSetPinValue>
	DIO_voidSetPinValue(PERIPHERAL_B_BASE,B5,1);
 584:	41 e0       	ldi	r20, 0x01	; 1
 586:	50 e0       	ldi	r21, 0x00	; 0
 588:	65 e0       	ldi	r22, 0x05	; 5
 58a:	70 e0       	ldi	r23, 0x00	; 0
 58c:	86 e3       	ldi	r24, 0x36	; 54
 58e:	90 e0       	ldi	r25, 0x00	; 0
 590:	0e 94 39 03 	call	0x672	; 0x672 <DIO_voidSetPinValue>
	DIO_voidSetPinValue(PERIPHERAL_A_BASE,A2,1);
 594:	41 e0       	ldi	r20, 0x01	; 1
 596:	50 e0       	ldi	r21, 0x00	; 0
 598:	62 e0       	ldi	r22, 0x02	; 2
 59a:	70 e0       	ldi	r23, 0x00	; 0
 59c:	89 e3       	ldi	r24, 0x39	; 57
 59e:	90 e0       	ldi	r25, 0x00	; 0
 5a0:	0e 94 39 03 	call	0x672	; 0x672 <DIO_voidSetPinValue>
	DIO_voidSetPinValue(PERIPHERAL_A_BASE,A3,1);
 5a4:	41 e0       	ldi	r20, 0x01	; 1
 5a6:	50 e0       	ldi	r21, 0x00	; 0
 5a8:	63 e0       	ldi	r22, 0x03	; 3
 5aa:	70 e0       	ldi	r23, 0x00	; 0
 5ac:	89 e3       	ldi	r24, 0x39	; 57
 5ae:	90 e0       	ldi	r25, 0x00	; 0
 5b0:	0e 94 39 03 	call	0x672	; 0x672 <DIO_voidSetPinValue>
	//direction of portB
	DIO_voidSetPinDirection(PERIPHERAL_B_BASE,B0,1);
 5b4:	41 e0       	ldi	r20, 0x01	; 1
 5b6:	50 e0       	ldi	r21, 0x00	; 0
 5b8:	60 e0       	ldi	r22, 0x00	; 0
 5ba:	70 e0       	ldi	r23, 0x00	; 0
 5bc:	86 e3       	ldi	r24, 0x36	; 54
 5be:	90 e0       	ldi	r25, 0x00	; 0
 5c0:	0e 94 fb 02 	call	0x5f6	; 0x5f6 <DIO_voidSetPinDirection>
	DIO_voidSetPinDirection(PERIPHERAL_B_BASE,B1,1);
 5c4:	41 e0       	ldi	r20, 0x01	; 1
 5c6:	50 e0       	ldi	r21, 0x00	; 0
 5c8:	61 e0       	ldi	r22, 0x01	; 1
 5ca:	70 e0       	ldi	r23, 0x00	; 0
 5cc:	86 e3       	ldi	r24, 0x36	; 54
 5ce:	90 e0       	ldi	r25, 0x00	; 0
 5d0:	0e 94 fb 02 	call	0x5f6	; 0x5f6 <DIO_voidSetPinDirection>
	DIO_voidSetPinDirection(PERIPHERAL_B_BASE,B2,1);
 5d4:	41 e0       	ldi	r20, 0x01	; 1
 5d6:	50 e0       	ldi	r21, 0x00	; 0
 5d8:	62 e0       	ldi	r22, 0x02	; 2
 5da:	70 e0       	ldi	r23, 0x00	; 0
 5dc:	86 e3       	ldi	r24, 0x36	; 54
 5de:	90 e0       	ldi	r25, 0x00	; 0
 5e0:	0e 94 fb 02 	call	0x5f6	; 0x5f6 <DIO_voidSetPinDirection>
	DIO_voidSetPinDirection(PERIPHERAL_B_BASE,B4,1);
 5e4:	41 e0       	ldi	r20, 0x01	; 1
 5e6:	50 e0       	ldi	r21, 0x00	; 0
 5e8:	64 e0       	ldi	r22, 0x04	; 4
 5ea:	70 e0       	ldi	r23, 0x00	; 0
 5ec:	86 e3       	ldi	r24, 0x36	; 54
 5ee:	90 e0       	ldi	r25, 0x00	; 0
 5f0:	0e 94 fb 02 	call	0x5f6	; 0x5f6 <DIO_voidSetPinDirection>
 5f4:	08 95       	ret

Disassembly of section .text.SEVEN_SEG_write_byte:

000000a0 <SEVEN_SEG_write_byte>:
}
void SEVEN_SEG_write_byte(u8 data)
{
	switch(data)
  a0:	90 e0       	ldi	r25, 0x00	; 0
  a2:	8a 30       	cpi	r24, 0x0A	; 10
  a4:	91 05       	cpc	r25, r1
  a6:	08 f0       	brcs	.+2      	; 0xaa <SEVEN_SEG_write_byte+0xa>
  a8:	4e c1       	rjmp	.+668    	; 0x346 <SEVEN_SEG_write_byte+0x2a6>
  aa:	fc 01       	movw	r30, r24
  ac:	e6 5d       	subi	r30, 0xD6	; 214
  ae:	ff 4f       	sbci	r31, 0xFF	; 255
  b0:	0c 94 98 03 	jmp	0x730	; 0x730 <__tablejump2__>
	{
		case 0:
		{
			DIO_voidSetPinValue(PERIPHERAL_B_BASE,B0,0);
  b4:	40 e0       	ldi	r20, 0x00	; 0
  b6:	50 e0       	ldi	r21, 0x00	; 0
  b8:	60 e0       	ldi	r22, 0x00	; 0
  ba:	70 e0       	ldi	r23, 0x00	; 0
  bc:	86 e3       	ldi	r24, 0x36	; 54
  be:	90 e0       	ldi	r25, 0x00	; 0
  c0:	0e 94 39 03 	call	0x672	; 0x672 <DIO_voidSetPinValue>
			DIO_voidSetPinValue(PERIPHERAL_B_BASE,B1,0);
  c4:	40 e0       	ldi	r20, 0x00	; 0
  c6:	50 e0       	ldi	r21, 0x00	; 0
  c8:	61 e0       	ldi	r22, 0x01	; 1
  ca:	70 e0       	ldi	r23, 0x00	; 0
  cc:	86 e3       	ldi	r24, 0x36	; 54
  ce:	90 e0       	ldi	r25, 0x00	; 0
  d0:	0e 94 39 03 	call	0x672	; 0x672 <DIO_voidSetPinValue>
			DIO_voidSetPinValue(PERIPHERAL_B_BASE,B2,0);
  d4:	40 e0       	ldi	r20, 0x00	; 0
  d6:	50 e0       	ldi	r21, 0x00	; 0
  d8:	62 e0       	ldi	r22, 0x02	; 2
  da:	70 e0       	ldi	r23, 0x00	; 0
  dc:	86 e3       	ldi	r24, 0x36	; 54
  de:	90 e0       	ldi	r25, 0x00	; 0
  e0:	0e 94 39 03 	call	0x672	; 0x672 <DIO_voidSetPinValue>
			DIO_voidSetPinValue(PERIPHERAL_B_BASE,B4,0);
  e4:	40 e0       	ldi	r20, 0x00	; 0
  e6:	50 e0       	ldi	r21, 0x00	; 0
  e8:	64 e0       	ldi	r22, 0x04	; 4
  ea:	70 e0       	ldi	r23, 0x00	; 0
  ec:	86 e3       	ldi	r24, 0x36	; 54
  ee:	90 e0       	ldi	r25, 0x00	; 0
  f0:	0e 94 39 03 	call	0x672	; 0x672 <DIO_voidSetPinValue>
			break;
  f4:	08 95       	ret
		}
		case 1:
		{
			
			DIO_voidSetPinValue(PERIPHERAL_B_BASE,B0,1);
  f6:	41 e0       	ldi	r20, 0x01	; 1
  f8:	50 e0       	ldi	r21, 0x00	; 0
  fa:	60 e0       	ldi	r22, 0x00	; 0
  fc:	70 e0       	ldi	r23, 0x00	; 0
  fe:	86 e3       	ldi	r24, 0x36	; 54
 100:	90 e0       	ldi	r25, 0x00	; 0
 102:	0e 94 39 03 	call	0x672	; 0x672 <DIO_voidSetPinValue>
			DIO_voidSetPinValue(PERIPHERAL_B_BASE,B1,0);
 106:	40 e0       	ldi	r20, 0x00	; 0
 108:	50 e0       	ldi	r21, 0x00	; 0
 10a:	61 e0       	ldi	r22, 0x01	; 1
 10c:	70 e0       	ldi	r23, 0x00	; 0
 10e:	86 e3       	ldi	r24, 0x36	; 54
 110:	90 e0       	ldi	r25, 0x00	; 0
 112:	0e 94 39 03 	call	0x672	; 0x672 <DIO_voidSetPinValue>
			DIO_voidSetPinValue(PERIPHERAL_B_BASE,B2,0);
 116:	40 e0       	ldi	r20, 0x00	; 0
 118:	50 e0       	ldi	r21, 0x00	; 0
 11a:	62 e0       	ldi	r22, 0x02	; 2
 11c:	70 e0       	ldi	r23, 0x00	; 0
 11e:	86 e3       	ldi	r24, 0x36	; 54
 120:	90 e0       	ldi	r25, 0x00	; 0
 122:	0e 94 39 03 	call	0x672	; 0x672 <DIO_voidSetPinValue>
			DIO_voidSetPinValue(PERIPHERAL_B_BASE,B4,0);
 126:	40 e0       	ldi	r20, 0x00	; 0
 128:	50 e0       	ldi	r21, 0x00	; 0
 12a:	64 e0       	ldi	r22, 0x04	; 4
 12c:	70 e0       	ldi	r23, 0x00	; 0
 12e:	86 e3       	ldi	r24, 0x36	; 54
 130:	90 e0       	ldi	r25, 0x00	; 0
 132:	0e 94 39 03 	call	0x672	; 0x672 <DIO_voidSetPinValue>
			break;
 136:	08 95       	ret
		}
		case 2:
		{
			DIO_voidSetPinValue(PERIPHERAL_B_BASE,B0,0);
 138:	40 e0       	ldi	r20, 0x00	; 0
 13a:	50 e0       	ldi	r21, 0x00	; 0
 13c:	60 e0       	ldi	r22, 0x00	; 0
 13e:	70 e0       	ldi	r23, 0x00	; 0
 140:	86 e3       	ldi	r24, 0x36	; 54
 142:	90 e0       	ldi	r25, 0x00	; 0
 144:	0e 94 39 03 	call	0x672	; 0x672 <DIO_voidSetPinValue>
			DIO_voidSetPinValue(PERIPHERAL_B_BASE,B1,1);
 148:	41 e0       	ldi	r20, 0x01	; 1
 14a:	50 e0       	ldi	r21, 0x00	; 0
 14c:	61 e0       	ldi	r22, 0x01	; 1
 14e:	70 e0       	ldi	r23, 0x00	; 0
 150:	86 e3       	ldi	r24, 0x36	; 54
 152:	90 e0       	ldi	r25, 0x00	; 0
 154:	0e 94 39 03 	call	0x672	; 0x672 <DIO_voidSetPinValue>
			DIO_voidSetPinValue(PERIPHERAL_B_BASE,B2,0);
 158:	40 e0       	ldi	r20, 0x00	; 0
 15a:	50 e0       	ldi	r21, 0x00	; 0
 15c:	62 e0       	ldi	r22, 0x02	; 2
 15e:	70 e0       	ldi	r23, 0x00	; 0
 160:	86 e3       	ldi	r24, 0x36	; 54
 162:	90 e0       	ldi	r25, 0x00	; 0
 164:	0e 94 39 03 	call	0x672	; 0x672 <DIO_voidSetPinValue>
			DIO_voidSetPinValue(PERIPHERAL_B_BASE,B4,0);
 168:	40 e0       	ldi	r20, 0x00	; 0
 16a:	50 e0       	ldi	r21, 0x00	; 0
 16c:	64 e0       	ldi	r22, 0x04	; 4
 16e:	70 e0       	ldi	r23, 0x00	; 0
 170:	86 e3       	ldi	r24, 0x36	; 54
 172:	90 e0       	ldi	r25, 0x00	; 0
 174:	0e 94 39 03 	call	0x672	; 0x672 <DIO_voidSetPinValue>
			break;
 178:	08 95       	ret
		}
		case 3:
		{
			DIO_voidSetPinValue(PERIPHERAL_B_BASE,B0,1);
 17a:	41 e0       	ldi	r20, 0x01	; 1
 17c:	50 e0       	ldi	r21, 0x00	; 0
 17e:	60 e0       	ldi	r22, 0x00	; 0
 180:	70 e0       	ldi	r23, 0x00	; 0
 182:	86 e3       	ldi	r24, 0x36	; 54
 184:	90 e0       	ldi	r25, 0x00	; 0
 186:	0e 94 39 03 	call	0x672	; 0x672 <DIO_voidSetPinValue>
			DIO_voidSetPinValue(PERIPHERAL_B_BASE,B1,1);
 18a:	41 e0       	ldi	r20, 0x01	; 1
 18c:	50 e0       	ldi	r21, 0x00	; 0
 18e:	61 e0       	ldi	r22, 0x01	; 1
 190:	70 e0       	ldi	r23, 0x00	; 0
 192:	86 e3       	ldi	r24, 0x36	; 54
 194:	90 e0       	ldi	r25, 0x00	; 0
 196:	0e 94 39 03 	call	0x672	; 0x672 <DIO_voidSetPinValue>
			DIO_voidSetPinValue(PERIPHERAL_B_BASE,B2,0);
 19a:	40 e0       	ldi	r20, 0x00	; 0
 19c:	50 e0       	ldi	r21, 0x00	; 0
 19e:	62 e0       	ldi	r22, 0x02	; 2
 1a0:	70 e0       	ldi	r23, 0x00	; 0
 1a2:	86 e3       	ldi	r24, 0x36	; 54
 1a4:	90 e0       	ldi	r25, 0x00	; 0
 1a6:	0e 94 39 03 	call	0x672	; 0x672 <DIO_voidSetPinValue>
			DIO_voidSetPinValue(PERIPHERAL_B_BASE,B4,0);
 1aa:	40 e0       	ldi	r20, 0x00	; 0
 1ac:	50 e0       	ldi	r21, 0x00	; 0
 1ae:	64 e0       	ldi	r22, 0x04	; 4
 1b0:	70 e0       	ldi	r23, 0x00	; 0
 1b2:	86 e3       	ldi	r24, 0x36	; 54
 1b4:	90 e0       	ldi	r25, 0x00	; 0
 1b6:	0e 94 39 03 	call	0x672	; 0x672 <DIO_voidSetPinValue>
			break;
 1ba:	08 95       	ret
		}
		case 4:
		{
			DIO_voidSetPinValue(PERIPHERAL_B_BASE,B0,0);
 1bc:	40 e0       	ldi	r20, 0x00	; 0
 1be:	50 e0       	ldi	r21, 0x00	; 0
 1c0:	60 e0       	ldi	r22, 0x00	; 0
 1c2:	70 e0       	ldi	r23, 0x00	; 0
 1c4:	86 e3       	ldi	r24, 0x36	; 54
 1c6:	90 e0       	ldi	r25, 0x00	; 0
 1c8:	0e 94 39 03 	call	0x672	; 0x672 <DIO_voidSetPinValue>
			DIO_voidSetPinValue(PERIPHERAL_B_BASE,B1,0);
 1cc:	40 e0       	ldi	r20, 0x00	; 0
 1ce:	50 e0       	ldi	r21, 0x00	; 0
 1d0:	61 e0       	ldi	r22, 0x01	; 1
 1d2:	70 e0       	ldi	r23, 0x00	; 0
 1d4:	86 e3       	ldi	r24, 0x36	; 54
 1d6:	90 e0       	ldi	r25, 0x00	; 0
 1d8:	0e 94 39 03 	call	0x672	; 0x672 <DIO_voidSetPinValue>
			DIO_voidSetPinValue(PERIPHERAL_B_BASE,B2,1);
 1dc:	41 e0       	ldi	r20, 0x01	; 1
 1de:	50 e0       	ldi	r21, 0x00	; 0
 1e0:	62 e0       	ldi	r22, 0x02	; 2
 1e2:	70 e0       	ldi	r23, 0x00	; 0
 1e4:	86 e3       	ldi	r24, 0x36	; 54
 1e6:	90 e0       	ldi	r25, 0x00	; 0
 1e8:	0e 94 39 03 	call	0x672	; 0x672 <DIO_voidSetPinValue>
			DIO_voidSetPinValue(PERIPHERAL_B_BASE,B4,0);
 1ec:	40 e0       	ldi	r20, 0x00	; 0
 1ee:	50 e0       	ldi	r21, 0x00	; 0
 1f0:	64 e0       	ldi	r22, 0x04	; 4
 1f2:	70 e0       	ldi	r23, 0x00	; 0
 1f4:	86 e3       	ldi	r24, 0x36	; 54
 1f6:	90 e0       	ldi	r25, 0x00	; 0
 1f8:	0e 94 39 03 	call	0x672	; 0x672 <DIO_voidSetPinValue>
			break;
 1fc:	08 95       	ret
		}
		case 5:
		{
			DIO_voidSetPinValue(PERIPHERAL_B_BASE,B0,1);
 1fe:	41 e0       	ldi	r20, 0x01	; 1
 200:	50 e0       	ldi	r21, 0x00	; 0
 202:	60 e0       	ldi	r22, 0x00	; 0
 204:	70 e0       	ldi	r23, 0x00	; 0
 206:	86 e3       	ldi	r24, 0x36	; 54
 208:	90 e0       	ldi	r25, 0x00	; 0
 20a:	0e 94 39 03 	call	0x672	; 0x672 <DIO_voidSetPinValue>
			DIO_voidSetPinValue(PERIPHERAL_B_BASE,B1,0);
 20e:	40 e0       	ldi	r20, 0x00	; 0
 210:	50 e0       	ldi	r21, 0x00	; 0
 212:	61 e0       	ldi	r22, 0x01	; 1
 214:	70 e0       	ldi	r23, 0x00	; 0
 216:	86 e3       	ldi	r24, 0x36	; 54
 218:	90 e0       	ldi	r25, 0x00	; 0
 21a:	0e 94 39 03 	call	0x672	; 0x672 <DIO_voidSetPinValue>
			DIO_voidSetPinValue(PERIPHERAL_B_BASE,B2,1);
 21e:	41 e0       	ldi	r20, 0x01	; 1
 220:	50 e0       	ldi	r21, 0x00	; 0
 222:	62 e0       	ldi	r22, 0x02	; 2
 224:	70 e0       	ldi	r23, 0x00	; 0
 226:	86 e3       	ldi	r24, 0x36	; 54
 228:	90 e0       	ldi	r25, 0x00	; 0
 22a:	0e 94 39 03 	call	0x672	; 0x672 <DIO_voidSetPinValue>
			DIO_voidSetPinValue(PERIPHERAL_B_BASE,B4,0);
 22e:	40 e0       	ldi	r20, 0x00	; 0
 230:	50 e0       	ldi	r21, 0x00	; 0
 232:	64 e0       	ldi	r22, 0x04	; 4
 234:	70 e0       	ldi	r23, 0x00	; 0
 236:	86 e3       	ldi	r24, 0x36	; 54
 238:	90 e0       	ldi	r25, 0x00	; 0
 23a:	0e 94 39 03 	call	0x672	; 0x672 <DIO_voidSetPinValue>
			break;
 23e:	08 95       	ret
		}
		case 6:
		{
			DIO_voidSetPinValue(PERIPHERAL_B_BASE,B0,0);
 240:	40 e0       	ldi	r20, 0x00	; 0
 242:	50 e0       	ldi	r21, 0x00	; 0
 244:	60 e0       	ldi	r22, 0x00	; 0
 246:	70 e0       	ldi	r23, 0x00	; 0
 248:	86 e3       	ldi	r24, 0x36	; 54
 24a:	90 e0       	ldi	r25, 0x00	; 0
 24c:	0e 94 39 03 	call	0x672	; 0x672 <DIO_voidSetPinValue>
			DIO_voidSetPinValue(PERIPHERAL_B_BASE,B1,1);
 250:	41 e0       	ldi	r20, 0x01	; 1
 252:	50 e0       	ldi	r21, 0x00	; 0
 254:	61 e0       	ldi	r22, 0x01	; 1
 256:	70 e0       	ldi	r23, 0x00	; 0
 258:	86 e3       	ldi	r24, 0x36	; 54
 25a:	90 e0       	ldi	r25, 0x00	; 0
 25c:	0e 94 39 03 	call	0x672	; 0x672 <DIO_voidSetPinValue>
			DIO_voidSetPinValue(PERIPHERAL_B_BASE,B2,1);
 260:	41 e0       	ldi	r20, 0x01	; 1
 262:	50 e0       	ldi	r21, 0x00	; 0
 264:	62 e0       	ldi	r22, 0x02	; 2
 266:	70 e0       	ldi	r23, 0x00	; 0
 268:	86 e3       	ldi	r24, 0x36	; 54
 26a:	90 e0       	ldi	r25, 0x00	; 0
 26c:	0e 94 39 03 	call	0x672	; 0x672 <DIO_voidSetPinValue>
			DIO_voidSetPinValue(PERIPHERAL_B_BASE,B4,0);
 270:	40 e0       	ldi	r20, 0x00	; 0
 272:	50 e0       	ldi	r21, 0x00	; 0
 274:	64 e0       	ldi	r22, 0x04	; 4
 276:	70 e0       	ldi	r23, 0x00	; 0
 278:	86 e3       	ldi	r24, 0x36	; 54
 27a:	90 e0       	ldi	r25, 0x00	; 0
 27c:	0e 94 39 03 	call	0x672	; 0x672 <DIO_voidSetPinValue>
			break;
 280:	08 95       	ret
		}
		case 7:
		{
			DIO_voidSetPinValue(PERIPHERAL_B_BASE,B0,1);
 282:	41 e0       	ldi	r20, 0x01	; 1
 284:	50 e0       	ldi	r21, 0x00	; 0
 286:	60 e0       	ldi	r22, 0x00	; 0
 288:	70 e0       	ldi	r23, 0x00	; 0
 28a:	86 e3       	ldi	r24, 0x36	; 54
 28c:	90 e0       	ldi	r25, 0x00	; 0
 28e:	0e 94 39 03 	call	0x672	; 0x672 <DIO_voidSetPinValue>
			DIO_voidSetPinValue(PERIPHERAL_B_BASE,B1,1);
 292:	41 e0       	ldi	r20, 0x01	; 1
 294:	50 e0       	ldi	r21, 0x00	; 0
 296:	61 e0       	ldi	r22, 0x01	; 1
 298:	70 e0       	ldi	r23, 0x00	; 0
 29a:	86 e3       	ldi	r24, 0x36	; 54
 29c:	90 e0       	ldi	r25, 0x00	; 0
 29e:	0e 94 39 03 	call	0x672	; 0x672 <DIO_voidSetPinValue>
			DIO_voidSetPinValue(PERIPHERAL_B_BASE,B2,1);
 2a2:	41 e0       	ldi	r20, 0x01	; 1
 2a4:	50 e0       	ldi	r21, 0x00	; 0
 2a6:	62 e0       	ldi	r22, 0x02	; 2
 2a8:	70 e0       	ldi	r23, 0x00	; 0
 2aa:	86 e3       	ldi	r24, 0x36	; 54
 2ac:	90 e0       	ldi	r25, 0x00	; 0
 2ae:	0e 94 39 03 	call	0x672	; 0x672 <DIO_voidSetPinValue>
			DIO_voidSetPinValue(PERIPHERAL_B_BASE,B4,0);
 2b2:	40 e0       	ldi	r20, 0x00	; 0
 2b4:	50 e0       	ldi	r21, 0x00	; 0
 2b6:	64 e0       	ldi	r22, 0x04	; 4
 2b8:	70 e0       	ldi	r23, 0x00	; 0
 2ba:	86 e3       	ldi	r24, 0x36	; 54
 2bc:	90 e0       	ldi	r25, 0x00	; 0
 2be:	0e 94 39 03 	call	0x672	; 0x672 <DIO_voidSetPinValue>
			break;
 2c2:	08 95       	ret
		}
		case 8:
		{
			DIO_voidSetPinValue(PERIPHERAL_B_BASE,B0,0);
 2c4:	40 e0       	ldi	r20, 0x00	; 0
 2c6:	50 e0       	ldi	r21, 0x00	; 0
 2c8:	60 e0       	ldi	r22, 0x00	; 0
 2ca:	70 e0       	ldi	r23, 0x00	; 0
 2cc:	86 e3       	ldi	r24, 0x36	; 54
 2ce:	90 e0       	ldi	r25, 0x00	; 0
 2d0:	0e 94 39 03 	call	0x672	; 0x672 <DIO_voidSetPinValue>
			DIO_voidSetPinValue(PERIPHERAL_B_BASE,B1,0);
 2d4:	40 e0       	ldi	r20, 0x00	; 0
 2d6:	50 e0       	ldi	r21, 0x00	; 0
 2d8:	61 e0       	ldi	r22, 0x01	; 1
 2da:	70 e0       	ldi	r23, 0x00	; 0
 2dc:	86 e3       	ldi	r24, 0x36	; 54
 2de:	90 e0       	ldi	r25, 0x00	; 0
 2e0:	0e 94 39 03 	call	0x672	; 0x672 <DIO_voidSetPinValue>
			DIO_voidSetPinValue(PERIPHERAL_B_BASE,B2,0);
 2e4:	40 e0       	ldi	r20, 0x00	; 0
 2e6:	50 e0       	ldi	r21, 0x00	; 0
 2e8:	62 e0       	ldi	r22, 0x02	; 2
 2ea:	70 e0       	ldi	r23, 0x00	; 0
 2ec:	86 e3       	ldi	r24, 0x36	; 54
 2ee:	90 e0       	ldi	r25, 0x00	; 0
 2f0:	0e 94 39 03 	call	0x672	; 0x672 <DIO_voidSetPinValue>
			DIO_voidSetPinValue(PERIPHERAL_B_BASE,B4,1);
 2f4:	41 e0       	ldi	r20, 0x01	; 1
 2f6:	50 e0       	ldi	r21, 0x00	; 0
 2f8:	64 e0       	ldi	r22, 0x04	; 4
 2fa:	70 e0       	ldi	r23, 0x00	; 0
 2fc:	86 e3       	ldi	r24, 0x36	; 54
 2fe:	90 e0       	ldi	r25, 0x00	; 0
 300:	0e 94 39 03 	call	0x672	; 0x672 <DIO_voidSetPinValue>
			break;
 304:	08 95       	ret
		}
		case 9:
		{
			DIO_voidSetPinValue(PERIPHERAL_B_BASE,B0,1);
 306:	41 e0       	ldi	r20, 0x01	; 1
 308:	50 e0       	ldi	r21, 0x00	; 0
 30a:	60 e0       	ldi	r22, 0x00	; 0
 30c:	70 e0       	ldi	r23, 0x00	; 0
 30e:	86 e3       	ldi	r24, 0x36	; 54
 310:	90 e0       	ldi	r25, 0x00	; 0
 312:	0e 94 39 03 	call	0x672	; 0x672 <DIO_voidSetPinValue>
			DIO_voidSetPinValue(PERIPHERAL_B_BASE,B1,0);
 316:	40 e0       	ldi	r20, 0x00	; 0
 318:	50 e0       	ldi	r21, 0x00	; 0
 31a:	61 e0       	ldi	r22, 0x01	; 1
 31c:	70 e0       	ldi	r23, 0x00	; 0
 31e:	86 e3       	ldi	r24, 0x36	; 54
 320:	90 e0       	ldi	r25, 0x00	; 0
 322:	0e 94 39 03 	call	0x672	; 0x672 <DIO_voidSetPinValue>
			DIO_voidSetPinValue(PERIPHERAL_B_BASE,B2,0);
 326:	40 e0       	ldi	r20, 0x00	; 0
 328:	50 e0       	ldi	r21, 0x00	; 0
 32a:	62 e0       	ldi	r22, 0x02	; 2
 32c:	70 e0       	ldi	r23, 0x00	; 0
 32e:	86 e3       	ldi	r24, 0x36	; 54
 330:	90 e0       	ldi	r25, 0x00	; 0
 332:	0e 94 39 03 	call	0x672	; 0x672 <DIO_voidSetPinValue>
			DIO_voidSetPinValue(PERIPHERAL_B_BASE,B4,1);
 336:	41 e0       	ldi	r20, 0x01	; 1
 338:	50 e0       	ldi	r21, 0x00	; 0
 33a:	64 e0       	ldi	r22, 0x04	; 4
 33c:	70 e0       	ldi	r23, 0x00	; 0
 33e:	86 e3       	ldi	r24, 0x36	; 54
 340:	90 e0       	ldi	r25, 0x00	; 0
 342:	0e 94 39 03 	call	0x672	; 0x672 <DIO_voidSetPinValue>
 346:	08 95       	ret

Disassembly of section .text.SEVEN_SEG_write:

00000348 <SEVEN_SEG_write>:
			break;
		}
	}	
}
void SEVEN_SEG_write(u16 num){
 348:	ef 92       	push	r14
 34a:	ff 92       	push	r15
 34c:	0f 93       	push	r16
 34e:	1f 93       	push	r17
 350:	cf 93       	push	r28
 352:	df 93       	push	r29
 354:	ec 01       	movw	r28, r24
	u8 rem;
	rem=num%10;
 356:	9c 01       	movw	r18, r24
 358:	ad ec       	ldi	r26, 0xCD	; 205
 35a:	bc ec       	ldi	r27, 0xCC	; 204
 35c:	0e 94 77 03 	call	0x6ee	; 0x6ee <__umulhisi3>
 360:	96 95       	lsr	r25
 362:	87 95       	ror	r24
 364:	96 95       	lsr	r25
 366:	87 95       	ror	r24
 368:	96 95       	lsr	r25
 36a:	87 95       	ror	r24
 36c:	ac 01       	movw	r20, r24
 36e:	44 0f       	add	r20, r20
 370:	55 1f       	adc	r21, r21
 372:	88 0f       	add	r24, r24
 374:	99 1f       	adc	r25, r25
 376:	88 0f       	add	r24, r24
 378:	99 1f       	adc	r25, r25
 37a:	88 0f       	add	r24, r24
 37c:	99 1f       	adc	r25, r25
 37e:	48 0f       	add	r20, r24
 380:	59 1f       	adc	r21, r25
	num=num/10;
 382:	0e 94 77 03 	call	0x6ee	; 0x6ee <__umulhisi3>
 386:	7c 01       	movw	r14, r24
 388:	f6 94       	lsr	r15
 38a:	e7 94       	ror	r14
 38c:	f6 94       	lsr	r15
 38e:	e7 94       	ror	r14
 390:	f6 94       	lsr	r15
 392:	e7 94       	ror	r14
	SEVEN_SEG_write_byte(rem);
 394:	8c 2f       	mov	r24, r28
 396:	84 1b       	sub	r24, r20
 398:	0e 94 50 00 	call	0xa0	; 0xa0 <__data_load_end>
	#else
		//round up by default
		__ticks_dc = (uint32_t)(ceil(fabs(__tmp)));
	#endif

	__builtin_avr_delay_cycles(__ticks_dc);
 39c:	89 ef       	ldi	r24, 0xF9	; 249
 39e:	90 e0       	ldi	r25, 0x00	; 0
 3a0:	01 97       	sbiw	r24, 0x01	; 1
 3a2:	f1 f7       	brne	.-4      	; 0x3a0 <SEVEN_SEG_write+0x58>
 3a4:	00 c0       	rjmp	.+0      	; 0x3a6 <SEVEN_SEG_write+0x5e>
 3a6:	00 00       	nop
	_delay_ms(1);
	DIO_voidSetPinValue(PERIPHERAL_A_BASE,A3,1);
 3a8:	41 e0       	ldi	r20, 0x01	; 1
 3aa:	50 e0       	ldi	r21, 0x00	; 0
 3ac:	63 e0       	ldi	r22, 0x03	; 3
 3ae:	70 e0       	ldi	r23, 0x00	; 0
 3b0:	89 e3       	ldi	r24, 0x39	; 57
 3b2:	90 e0       	ldi	r25, 0x00	; 0
 3b4:	0e 94 39 03 	call	0x672	; 0x672 <DIO_voidSetPinValue>
	DIO_voidSetPinValue(PERIPHERAL_A_BASE,A2,0);
 3b8:	40 e0       	ldi	r20, 0x00	; 0
 3ba:	50 e0       	ldi	r21, 0x00	; 0
 3bc:	62 e0       	ldi	r22, 0x02	; 2
 3be:	70 e0       	ldi	r23, 0x00	; 0
 3c0:	89 e3       	ldi	r24, 0x39	; 57
 3c2:	90 e0       	ldi	r25, 0x00	; 0
 3c4:	0e 94 39 03 	call	0x672	; 0x672 <DIO_voidSetPinValue>
	rem=num%10;
 3c8:	97 01       	movw	r18, r14
 3ca:	ad ec       	ldi	r26, 0xCD	; 205
 3cc:	bc ec       	ldi	r27, 0xCC	; 204
 3ce:	0e 94 77 03 	call	0x6ee	; 0x6ee <__umulhisi3>
 3d2:	96 95       	lsr	r25
 3d4:	87 95       	ror	r24
 3d6:	96 95       	lsr	r25
 3d8:	87 95       	ror	r24
 3da:	96 95       	lsr	r25
 3dc:	87 95       	ror	r24
 3de:	ac 01       	movw	r20, r24
 3e0:	44 0f       	add	r20, r20
 3e2:	55 1f       	adc	r21, r21
 3e4:	88 0f       	add	r24, r24
 3e6:	99 1f       	adc	r25, r25
 3e8:	88 0f       	add	r24, r24
 3ea:	99 1f       	adc	r25, r25
 3ec:	88 0f       	add	r24, r24
 3ee:	99 1f       	adc	r25, r25
 3f0:	48 0f       	add	r20, r24
 3f2:	59 1f       	adc	r21, r25
	num=num/10;
 3f4:	9e 01       	movw	r18, r28
 3f6:	36 95       	lsr	r19
 3f8:	27 95       	ror	r18
 3fa:	36 95       	lsr	r19
 3fc:	27 95       	ror	r18
 3fe:	ab e7       	ldi	r26, 0x7B	; 123
 400:	b4 e1       	ldi	r27, 0x14	; 20
 402:	0e 94 77 03 	call	0x6ee	; 0x6ee <__umulhisi3>
 406:	8c 01       	movw	r16, r24
 408:	16 95       	lsr	r17
 40a:	07 95       	ror	r16
	SEVEN_SEG_write_byte(rem);
 40c:	8e 2d       	mov	r24, r14
 40e:	84 1b       	sub	r24, r20
 410:	0e 94 50 00 	call	0xa0	; 0xa0 <__data_load_end>
 414:	89 ef       	ldi	r24, 0xF9	; 249
 416:	90 e0       	ldi	r25, 0x00	; 0
 418:	01 97       	sbiw	r24, 0x01	; 1
 41a:	f1 f7       	brne	.-4      	; 0x418 <__EEPROM_REGION_LENGTH__+0x18>
 41c:	00 c0       	rjmp	.+0      	; 0x41e <__EEPROM_REGION_LENGTH__+0x1e>
 41e:	00 00       	nop
	_delay_ms(1);
	DIO_voidSetPinValue(PERIPHERAL_A_BASE,A2,1);
 420:	41 e0       	ldi	r20, 0x01	; 1
 422:	50 e0       	ldi	r21, 0x00	; 0
 424:	62 e0       	ldi	r22, 0x02	; 2
 426:	70 e0       	ldi	r23, 0x00	; 0
 428:	89 e3       	ldi	r24, 0x39	; 57
 42a:	90 e0       	ldi	r25, 0x00	; 0
 42c:	0e 94 39 03 	call	0x672	; 0x672 <DIO_voidSetPinValue>
	DIO_voidSetPinValue(PERIPHERAL_B_BASE,B5,0);//5
 430:	40 e0       	ldi	r20, 0x00	; 0
 432:	50 e0       	ldi	r21, 0x00	; 0
 434:	65 e0       	ldi	r22, 0x05	; 5
 436:	70 e0       	ldi	r23, 0x00	; 0
 438:	86 e3       	ldi	r24, 0x36	; 54
 43a:	90 e0       	ldi	r25, 0x00	; 0
 43c:	0e 94 39 03 	call	0x672	; 0x672 <DIO_voidSetPinValue>
	
	rem=num%10;
 440:	98 01       	movw	r18, r16
 442:	ad ec       	ldi	r26, 0xCD	; 205
 444:	bc ec       	ldi	r27, 0xCC	; 204
 446:	0e 94 77 03 	call	0x6ee	; 0x6ee <__umulhisi3>
 44a:	96 95       	lsr	r25
 44c:	87 95       	ror	r24
 44e:	96 95       	lsr	r25
 450:	87 95       	ror	r24
 452:	96 95       	lsr	r25
 454:	87 95       	ror	r24
 456:	ac 01       	movw	r20, r24
 458:	44 0f       	add	r20, r20
 45a:	55 1f       	adc	r21, r21
 45c:	88 0f       	add	r24, r24
 45e:	99 1f       	adc	r25, r25
 460:	88 0f       	add	r24, r24
 462:	99 1f       	adc	r25, r25
 464:	88 0f       	add	r24, r24
 466:	99 1f       	adc	r25, r25
 468:	48 0f       	add	r20, r24
 46a:	59 1f       	adc	r21, r25
	num=num/10;
 46c:	9e 01       	movw	r18, r28
 46e:	36 95       	lsr	r19
 470:	27 95       	ror	r18
 472:	36 95       	lsr	r19
 474:	27 95       	ror	r18
 476:	36 95       	lsr	r19
 478:	27 95       	ror	r18
 47a:	a5 ec       	ldi	r26, 0xC5	; 197
 47c:	b0 e2       	ldi	r27, 0x20	; 32
 47e:	0e 94 77 03 	call	0x6ee	; 0x6ee <__umulhisi3>
 482:	ec 01       	movw	r28, r24
 484:	d2 95       	swap	r29
 486:	c2 95       	swap	r28
 488:	cf 70       	andi	r28, 0x0F	; 15
 48a:	cd 27       	eor	r28, r29
 48c:	df 70       	andi	r29, 0x0F	; 15
 48e:	cd 27       	eor	r28, r29
	SEVEN_SEG_write_byte(rem);
 490:	80 2f       	mov	r24, r16
 492:	84 1b       	sub	r24, r20
 494:	0e 94 50 00 	call	0xa0	; 0xa0 <__data_load_end>
 498:	89 ef       	ldi	r24, 0xF9	; 249
 49a:	90 e0       	ldi	r25, 0x00	; 0
 49c:	01 97       	sbiw	r24, 0x01	; 1
 49e:	f1 f7       	brne	.-4      	; 0x49c <__EEPROM_REGION_LENGTH__+0x9c>
 4a0:	00 c0       	rjmp	.+0      	; 0x4a2 <__EEPROM_REGION_LENGTH__+0xa2>
 4a2:	00 00       	nop
	_delay_ms(1);
	DIO_voidSetPinValue(PERIPHERAL_B_BASE,B5,1);
 4a4:	41 e0       	ldi	r20, 0x01	; 1
 4a6:	50 e0       	ldi	r21, 0x00	; 0
 4a8:	65 e0       	ldi	r22, 0x05	; 5
 4aa:	70 e0       	ldi	r23, 0x00	; 0
 4ac:	86 e3       	ldi	r24, 0x36	; 54
 4ae:	90 e0       	ldi	r25, 0x00	; 0
 4b0:	0e 94 39 03 	call	0x672	; 0x672 <DIO_voidSetPinValue>
	DIO_voidSetPinValue(PERIPHERAL_B_BASE,B6,0);
 4b4:	40 e0       	ldi	r20, 0x00	; 0
 4b6:	50 e0       	ldi	r21, 0x00	; 0
 4b8:	66 e0       	ldi	r22, 0x06	; 6
 4ba:	70 e0       	ldi	r23, 0x00	; 0
 4bc:	86 e3       	ldi	r24, 0x36	; 54
 4be:	90 e0       	ldi	r25, 0x00	; 0
 4c0:	0e 94 39 03 	call	0x672	; 0x672 <DIO_voidSetPinValue>
	rem=num%10;
 4c4:	9e 01       	movw	r18, r28
 4c6:	ad ec       	ldi	r26, 0xCD	; 205
 4c8:	bc ec       	ldi	r27, 0xCC	; 204
 4ca:	0e 94 77 03 	call	0x6ee	; 0x6ee <__umulhisi3>
 4ce:	96 95       	lsr	r25
 4d0:	87 95       	ror	r24
 4d2:	96 95       	lsr	r25
 4d4:	87 95       	ror	r24
 4d6:	96 95       	lsr	r25
 4d8:	87 95       	ror	r24
 4da:	9c 01       	movw	r18, r24
 4dc:	22 0f       	add	r18, r18
 4de:	33 1f       	adc	r19, r19
 4e0:	88 0f       	add	r24, r24
 4e2:	99 1f       	adc	r25, r25
 4e4:	88 0f       	add	r24, r24
 4e6:	99 1f       	adc	r25, r25
 4e8:	88 0f       	add	r24, r24
 4ea:	99 1f       	adc	r25, r25
 4ec:	82 0f       	add	r24, r18
 4ee:	93 1f       	adc	r25, r19
	num=num/10;
	SEVEN_SEG_write_byte(rem);
 4f0:	2c 2f       	mov	r18, r28
 4f2:	28 1b       	sub	r18, r24
 4f4:	82 2f       	mov	r24, r18
 4f6:	0e 94 50 00 	call	0xa0	; 0xa0 <__data_load_end>
 4fa:	89 ef       	ldi	r24, 0xF9	; 249
 4fc:	90 e0       	ldi	r25, 0x00	; 0
 4fe:	01 97       	sbiw	r24, 0x01	; 1
 500:	f1 f7       	brne	.-4      	; 0x4fe <__EEPROM_REGION_LENGTH__+0xfe>
 502:	00 c0       	rjmp	.+0      	; 0x504 <__EEPROM_REGION_LENGTH__+0x104>
 504:	00 00       	nop
	_delay_ms(1);
	DIO_voidSetPinValue(PERIPHERAL_B_BASE,B6,1);
 506:	41 e0       	ldi	r20, 0x01	; 1
 508:	50 e0       	ldi	r21, 0x00	; 0
 50a:	66 e0       	ldi	r22, 0x06	; 6
 50c:	70 e0       	ldi	r23, 0x00	; 0
 50e:	86 e3       	ldi	r24, 0x36	; 54
 510:	90 e0       	ldi	r25, 0x00	; 0
 512:	0e 94 39 03 	call	0x672	; 0x672 <DIO_voidSetPinValue>
	DIO_voidSetPinValue(PERIPHERAL_A_BASE,A3,0);
 516:	40 e0       	ldi	r20, 0x00	; 0
 518:	50 e0       	ldi	r21, 0x00	; 0
 51a:	63 e0       	ldi	r22, 0x03	; 3
 51c:	70 e0       	ldi	r23, 0x00	; 0
 51e:	89 e3       	ldi	r24, 0x39	; 57
 520:	90 e0       	ldi	r25, 0x00	; 0
 522:	0e 94 39 03 	call	0x672	; 0x672 <DIO_voidSetPinValue>
}
 526:	df 91       	pop	r29
 528:	cf 91       	pop	r28
 52a:	1f 91       	pop	r17
 52c:	0f 91       	pop	r16
 52e:	ff 90       	pop	r15
 530:	ef 90       	pop	r14
 532:	08 95       	ret

Disassembly of section .text.DIO_voidSetPinDirection:

000005f6 <DIO_voidSetPinDirection>:
 *
 * Created: 10/25/2023 4:07:36 PM
 *  Author: Sarah saeed
 */ 
#include "DIO_interface.h"
void DIO_voidSetPinDirection( GPIO_peripherals *ptr, u8 Copy_u8PinId, u8 Copy_u8Direction){
 5f6:	0f 93       	push	r16
 5f8:	1f 93       	push	r17

	switch (Copy_u8PinId){
 5fa:	06 2f       	mov	r16, r22
 5fc:	10 e0       	ldi	r17, 0x00	; 0
 5fe:	08 30       	cpi	r16, 0x08	; 8
 600:	11 05       	cpc	r17, r1
 602:	a0 f5       	brcc	.+104    	; 0x66c <DIO_voidSetPinDirection+0x76>
 604:	f8 01       	movw	r30, r16
 606:	ec 5c       	subi	r30, 0xCC	; 204
 608:	ff 4f       	sbci	r31, 0xFF	; 255
 60a:	0c 94 98 03 	jmp	0x730	; 0x730 <__tablejump2__>
		case 0:
		ptr->DDR.Bit.B0 = Copy_u8Direction;
 60e:	fc 01       	movw	r30, r24
 610:	21 81       	ldd	r18, Z+1	; 0x01
 612:	40 fb       	bst	r20, 0
 614:	20 f9       	bld	r18, 0
 616:	21 83       	std	Z+1, r18	; 0x01
		break;
 618:	29 c0       	rjmp	.+82     	; 0x66c <DIO_voidSetPinDirection+0x76>
		case 1:
		ptr->DDR.Bit.B1 = Copy_u8Direction;
 61a:	fc 01       	movw	r30, r24
 61c:	21 81       	ldd	r18, Z+1	; 0x01
 61e:	40 fb       	bst	r20, 0
 620:	21 f9       	bld	r18, 1
 622:	21 83       	std	Z+1, r18	; 0x01
		break;
 624:	23 c0       	rjmp	.+70     	; 0x66c <DIO_voidSetPinDirection+0x76>
		case 2:
		ptr->DDR.Bit.B2 = Copy_u8Direction;
 626:	fc 01       	movw	r30, r24
 628:	21 81       	ldd	r18, Z+1	; 0x01
 62a:	40 fb       	bst	r20, 0
 62c:	22 f9       	bld	r18, 2
 62e:	21 83       	std	Z+1, r18	; 0x01
		break;
 630:	1d c0       	rjmp	.+58     	; 0x66c <DIO_voidSetPinDirection+0x76>
		case 3:
		ptr->DDR.Bit.B3 = Copy_u8Direction;
 632:	fc 01       	movw	r30, r24
 634:	21 81       	ldd	r18, Z+1	; 0x01
 636:	40 fb       	bst	r20, 0
 638:	23 f9       	bld	r18, 3
 63a:	21 83       	std	Z+1, r18	; 0x01
		break;
 63c:	17 c0       	rjmp	.+46     	; 0x66c <DIO_voidSetPinDirection+0x76>
		case 4:
		ptr->DDR.Bit.B4 = Copy_u8Direction;
 63e:	fc 01       	movw	r30, r24
 640:	21 81       	ldd	r18, Z+1	; 0x01
 642:	40 fb       	bst	r20, 0
 644:	24 f9       	bld	r18, 4
 646:	21 83       	std	Z+1, r18	; 0x01
		break;
 648:	11 c0       	rjmp	.+34     	; 0x66c <DIO_voidSetPinDirection+0x76>
		case 5:
		ptr->DDR.Bit.B5 = Copy_u8Direction;
 64a:	fc 01       	movw	r30, r24
 64c:	21 81       	ldd	r18, Z+1	; 0x01
 64e:	40 fb       	bst	r20, 0
 650:	25 f9       	bld	r18, 5
 652:	21 83       	std	Z+1, r18	; 0x01
		break;
 654:	0b c0       	rjmp	.+22     	; 0x66c <DIO_voidSetPinDirection+0x76>
		case 6:
		ptr->DDR.Bit.B6= Copy_u8Direction;
 656:	fc 01       	movw	r30, r24
 658:	21 81       	ldd	r18, Z+1	; 0x01
 65a:	40 fb       	bst	r20, 0
 65c:	26 f9       	bld	r18, 6
 65e:	21 83       	std	Z+1, r18	; 0x01
		break;
 660:	05 c0       	rjmp	.+10     	; 0x66c <DIO_voidSetPinDirection+0x76>
		case 7:
		ptr->DDR.Bit.B7 = Copy_u8Direction;
 662:	fc 01       	movw	r30, r24
 664:	21 81       	ldd	r18, Z+1	; 0x01
 666:	40 fb       	bst	r20, 0
 668:	27 f9       	bld	r18, 7
 66a:	21 83       	std	Z+1, r18	; 0x01
		break;
		default:
		break;
	}
}
 66c:	1f 91       	pop	r17
 66e:	0f 91       	pop	r16
 670:	08 95       	ret

Disassembly of section .text.DIO_voidSetPinValue:

00000672 <DIO_voidSetPinValue>:
void DIO_voidSetPinValue(GPIO_peripherals *ptr, u8 Copy_u8PinId, u8 Copy_u8Value){
 672:	0f 93       	push	r16
 674:	1f 93       	push	r17
	switch (Copy_u8PinId){
 676:	06 2f       	mov	r16, r22
 678:	10 e0       	ldi	r17, 0x00	; 0
 67a:	08 30       	cpi	r16, 0x08	; 8
 67c:	11 05       	cpc	r17, r1
 67e:	a0 f5       	brcc	.+104    	; 0x6e8 <DIO_voidSetPinValue+0x76>
 680:	f8 01       	movw	r30, r16
 682:	e4 5c       	subi	r30, 0xC4	; 196
 684:	ff 4f       	sbci	r31, 0xFF	; 255
 686:	0c 94 98 03 	jmp	0x730	; 0x730 <__tablejump2__>
		case 0:
		ptr->PORT.Bit.B0 = Copy_u8Value;
 68a:	fc 01       	movw	r30, r24
 68c:	22 81       	ldd	r18, Z+2	; 0x02
 68e:	40 fb       	bst	r20, 0
 690:	20 f9       	bld	r18, 0
 692:	22 83       	std	Z+2, r18	; 0x02
		break;
 694:	29 c0       	rjmp	.+82     	; 0x6e8 <DIO_voidSetPinValue+0x76>
		case 1:
		ptr->PORT.Bit.B1 = Copy_u8Value;
 696:	fc 01       	movw	r30, r24
 698:	22 81       	ldd	r18, Z+2	; 0x02
 69a:	40 fb       	bst	r20, 0
 69c:	21 f9       	bld	r18, 1
 69e:	22 83       	std	Z+2, r18	; 0x02
		break;
 6a0:	23 c0       	rjmp	.+70     	; 0x6e8 <DIO_voidSetPinValue+0x76>
		case 2:
		ptr->PORT.Bit.B2 = Copy_u8Value;
 6a2:	fc 01       	movw	r30, r24
 6a4:	22 81       	ldd	r18, Z+2	; 0x02
 6a6:	40 fb       	bst	r20, 0
 6a8:	22 f9       	bld	r18, 2
 6aa:	22 83       	std	Z+2, r18	; 0x02
		break;
 6ac:	1d c0       	rjmp	.+58     	; 0x6e8 <DIO_voidSetPinValue+0x76>
		case 3:
		ptr->PORT.Bit.B3 = Copy_u8Value;
 6ae:	fc 01       	movw	r30, r24
 6b0:	22 81       	ldd	r18, Z+2	; 0x02
 6b2:	40 fb       	bst	r20, 0
 6b4:	23 f9       	bld	r18, 3
 6b6:	22 83       	std	Z+2, r18	; 0x02
		break;
 6b8:	17 c0       	rjmp	.+46     	; 0x6e8 <DIO_voidSetPinValue+0x76>
		case 4:
		ptr->PORT.Bit.B4 = Copy_u8Value;
 6ba:	fc 01       	movw	r30, r24
 6bc:	22 81       	ldd	r18, Z+2	; 0x02
 6be:	40 fb       	bst	r20, 0
 6c0:	24 f9       	bld	r18, 4
 6c2:	22 83       	std	Z+2, r18	; 0x02
		break;
 6c4:	11 c0       	rjmp	.+34     	; 0x6e8 <DIO_voidSetPinValue+0x76>
		case 5:
		ptr->PORT.Bit.B5 = Copy_u8Value;
 6c6:	fc 01       	movw	r30, r24
 6c8:	22 81       	ldd	r18, Z+2	; 0x02
 6ca:	40 fb       	bst	r20, 0
 6cc:	25 f9       	bld	r18, 5
 6ce:	22 83       	std	Z+2, r18	; 0x02
		break;
 6d0:	0b c0       	rjmp	.+22     	; 0x6e8 <DIO_voidSetPinValue+0x76>
		case 6:
		ptr->PORT.Bit.B6 = Copy_u8Value;
 6d2:	fc 01       	movw	r30, r24
 6d4:	22 81       	ldd	r18, Z+2	; 0x02
 6d6:	40 fb       	bst	r20, 0
 6d8:	26 f9       	bld	r18, 6
 6da:	22 83       	std	Z+2, r18	; 0x02
		break;
 6dc:	05 c0       	rjmp	.+10     	; 0x6e8 <DIO_voidSetPinValue+0x76>
		case 7:
		ptr->PORT.Bit.B7 = Copy_u8Value;
 6de:	fc 01       	movw	r30, r24
 6e0:	22 81       	ldd	r18, Z+2	; 0x02
 6e2:	40 fb       	bst	r20, 0
 6e4:	27 f9       	bld	r18, 7
 6e6:	22 83       	std	Z+2, r18	; 0x02
		break;
		default:
		break;
	}

}
 6e8:	1f 91       	pop	r17
 6ea:	0f 91       	pop	r16
 6ec:	08 95       	ret

Disassembly of section .text.main:

00000722 <main>:

#include <xc.h>
#include "segement_interface.h"
int main(void)
{
	SEVEN_SEG_init();
 722:	0e 94 9a 02 	call	0x534	; 0x534 <SEVEN_SEG_init>
	SEVEN_SEG_write(1202);
 726:	82 eb       	ldi	r24, 0xB2	; 178
 728:	94 e0       	ldi	r25, 0x04	; 4
 72a:	0e 94 a4 01 	call	0x348	; 0x348 <SEVEN_SEG_write>
 72e:	ff cf       	rjmp	.-2      	; 0x72e <main+0xc>

Disassembly of section .text.libgcc:

00000730 <__tablejump2__>:
 730:	ee 0f       	add	r30, r30
 732:	ff 1f       	adc	r31, r31
 734:	05 90       	lpm	r0, Z+
 736:	f4 91       	lpm	r31, Z
 738:	e0 2d       	mov	r30, r0
 73a:	09 94       	ijmp

Disassembly of section .text.libgcc.mul:

000006ee <__umulhisi3>:
 6ee:	a2 9f       	mul	r26, r18
 6f0:	b0 01       	movw	r22, r0
 6f2:	b3 9f       	mul	r27, r19
 6f4:	c0 01       	movw	r24, r0
 6f6:	a3 9f       	mul	r26, r19
 6f8:	70 0d       	add	r23, r0
 6fa:	81 1d       	adc	r24, r1
 6fc:	11 24       	eor	r1, r1
 6fe:	91 1d       	adc	r25, r1
 700:	b2 9f       	mul	r27, r18
 702:	70 0d       	add	r23, r0
 704:	81 1d       	adc	r24, r1
 706:	11 24       	eor	r1, r1
 708:	91 1d       	adc	r25, r1
 70a:	08 95       	ret

Disassembly of section .text.__dummy_fini:

00000744 <_fini>:
 744:	08 95       	ret

Disassembly of section .text.__dummy_funcs_on_exit:

00000746 <__funcs_on_exit>:
 746:	08 95       	ret

Disassembly of section .text.__dummy_simulator_exit:

00000748 <__simulator_exit>:
 748:	08 95       	ret

Disassembly of section .text.exit:

0000070c <exit>:
 70c:	ec 01       	movw	r28, r24
 70e:	0e 94 a3 03 	call	0x746	; 0x746 <__funcs_on_exit>
 712:	0e 94 a2 03 	call	0x744	; 0x744 <_fini>
 716:	ce 01       	movw	r24, r28
 718:	0e 94 a4 03 	call	0x748	; 0x748 <__simulator_exit>
 71c:	ce 01       	movw	r24, r28
 71e:	0e 94 a0 03 	call	0x740	; 0x740 <_Exit>

Disassembly of section .text._Exit:

00000740 <_Exit>:
 740:	0e 94 4e 00 	call	0x9c	; 0x9c <_exit>
